
template.elf:     file format elf32-littlearm

Sections:
Idx Name          Size      VMA       LMA       File off  Algn
  0 .isr_vector   0000013c  08000000  08000000  00010000  2**0
                  CONTENTS, ALLOC, LOAD, READONLY, DATA
  1 .text         00005218  08000140  08000140  00010140  2**3
                  CONTENTS, ALLOC, LOAD, READONLY, CODE
  2 .rodata       000003f8  08005358  08005358  00015358  2**3
                  CONTENTS, ALLOC, LOAD, READONLY, DATA
  3 .ARM          00000008  08005750  08005750  00015750  2**2
                  CONTENTS, ALLOC, LOAD, READONLY, DATA
  4 .init_array   00000004  08005758  08005758  00015758  2**2
                  CONTENTS, ALLOC, LOAD, DATA
  5 .fini_array   00000004  0800575c  0800575c  0001575c  2**2
                  CONTENTS, ALLOC, LOAD, DATA
  6 .data         00000678  20000000  08005760  00020000  2**2
                  CONTENTS, ALLOC, LOAD, DATA
  7 .bss          00000094  20000678  08005dd8  00020678  2**2
                  ALLOC
  8 ._user_heap_stack 00000400  2000070c  08005dd8  0002070c  2**0
                  ALLOC
  9 .ARM.attributes 00000029  00000000  00000000  00020678  2**0
                  CONTENTS, READONLY
 10 .debug_info   00005e16  00000000  00000000  000206a1  2**0
                  CONTENTS, READONLY, DEBUGGING
 11 .debug_abbrev 000010b4  00000000  00000000  000264b7  2**0
                  CONTENTS, READONLY, DEBUGGING
 12 .debug_aranges 000002c8  00000000  00000000  00027570  2**3
                  CONTENTS, READONLY, DEBUGGING
 13 .debug_ranges 00000200  00000000  00000000  00027838  2**3
                  CONTENTS, READONLY, DEBUGGING
 14 .debug_line   00001c5d  00000000  00000000  00027a38  2**0
                  CONTENTS, READONLY, DEBUGGING
 15 .debug_str    00001257  00000000  00000000  00029695  2**0
                  CONTENTS, READONLY, DEBUGGING
 16 .comment      0000007c  00000000  00000000  0002a8ec  2**0
                  CONTENTS, READONLY
 17 .debug_frame  00001414  00000000  00000000  0002a968  2**2
                  CONTENTS, READONLY, DEBUGGING

Disassembly of section .text:

08000140 <__do_global_dtors_aux>:
 8000140:	b510      	push	{r4, lr}
 8000142:	4c05      	ldr	r4, [pc, #20]	; (8000158 <__do_global_dtors_aux+0x18>)
 8000144:	7823      	ldrb	r3, [r4, #0]
 8000146:	b933      	cbnz	r3, 8000156 <__do_global_dtors_aux+0x16>
 8000148:	4b04      	ldr	r3, [pc, #16]	; (800015c <__do_global_dtors_aux+0x1c>)
 800014a:	b113      	cbz	r3, 8000152 <__do_global_dtors_aux+0x12>
 800014c:	4804      	ldr	r0, [pc, #16]	; (8000160 <__do_global_dtors_aux+0x20>)
 800014e:	f3af 8000 	nop.w
 8000152:	2301      	movs	r3, #1
 8000154:	7023      	strb	r3, [r4, #0]
 8000156:	bd10      	pop	{r4, pc}
 8000158:	20000678 	.word	0x20000678
 800015c:	00000000 	.word	0x00000000
 8000160:	08005340 	.word	0x08005340

08000164 <frame_dummy>:
 8000164:	b508      	push	{r3, lr}
 8000166:	4b03      	ldr	r3, [pc, #12]	; (8000174 <frame_dummy+0x10>)
 8000168:	b11b      	cbz	r3, 8000172 <frame_dummy+0xe>
 800016a:	4903      	ldr	r1, [pc, #12]	; (8000178 <frame_dummy+0x14>)
 800016c:	4803      	ldr	r0, [pc, #12]	; (800017c <frame_dummy+0x18>)
 800016e:	f3af 8000 	nop.w
 8000172:	bd08      	pop	{r3, pc}
 8000174:	00000000 	.word	0x00000000
 8000178:	2000067c 	.word	0x2000067c
 800017c:	08005340 	.word	0x08005340

08000180 <strlen>:
 8000180:	4603      	mov	r3, r0
 8000182:	f813 2b01 	ldrb.w	r2, [r3], #1
 8000186:	2a00      	cmp	r2, #0
 8000188:	d1fb      	bne.n	8000182 <strlen+0x2>
 800018a:	1a18      	subs	r0, r3, r0
 800018c:	3801      	subs	r0, #1
 800018e:	4770      	bx	lr

08000190 <__aeabi_drsub>:
 8000190:	f081 4100 	eor.w	r1, r1, #2147483648	; 0x80000000
 8000194:	e002      	b.n	800019c <__adddf3>
 8000196:	bf00      	nop

08000198 <__aeabi_dsub>:
 8000198:	f083 4300 	eor.w	r3, r3, #2147483648	; 0x80000000

0800019c <__adddf3>:
 800019c:	b530      	push	{r4, r5, lr}
 800019e:	ea4f 0441 	mov.w	r4, r1, lsl #1
 80001a2:	ea4f 0543 	mov.w	r5, r3, lsl #1
 80001a6:	ea94 0f05 	teq	r4, r5
 80001aa:	bf08      	it	eq
 80001ac:	ea90 0f02 	teqeq	r0, r2
 80001b0:	bf1f      	itttt	ne
 80001b2:	ea54 0c00 	orrsne.w	ip, r4, r0
 80001b6:	ea55 0c02 	orrsne.w	ip, r5, r2
 80001ba:	ea7f 5c64 	mvnsne.w	ip, r4, asr #21
 80001be:	ea7f 5c65 	mvnsne.w	ip, r5, asr #21
 80001c2:	f000 80e2 	beq.w	800038a <__adddf3+0x1ee>
 80001c6:	ea4f 5454 	mov.w	r4, r4, lsr #21
 80001ca:	ebd4 5555 	rsbs	r5, r4, r5, lsr #21
 80001ce:	bfb8      	it	lt
 80001d0:	426d      	neglt	r5, r5
 80001d2:	dd0c      	ble.n	80001ee <__adddf3+0x52>
 80001d4:	442c      	add	r4, r5
 80001d6:	ea80 0202 	eor.w	r2, r0, r2
 80001da:	ea81 0303 	eor.w	r3, r1, r3
 80001de:	ea82 0000 	eor.w	r0, r2, r0
 80001e2:	ea83 0101 	eor.w	r1, r3, r1
 80001e6:	ea80 0202 	eor.w	r2, r0, r2
 80001ea:	ea81 0303 	eor.w	r3, r1, r3
 80001ee:	2d36      	cmp	r5, #54	; 0x36
 80001f0:	bf88      	it	hi
 80001f2:	bd30      	pophi	{r4, r5, pc}
 80001f4:	f011 4f00 	tst.w	r1, #2147483648	; 0x80000000
 80001f8:	ea4f 3101 	mov.w	r1, r1, lsl #12
 80001fc:	f44f 1c80 	mov.w	ip, #1048576	; 0x100000
 8000200:	ea4c 3111 	orr.w	r1, ip, r1, lsr #12
 8000204:	d002      	beq.n	800020c <__adddf3+0x70>
 8000206:	4240      	negs	r0, r0
 8000208:	eb61 0141 	sbc.w	r1, r1, r1, lsl #1
 800020c:	f013 4f00 	tst.w	r3, #2147483648	; 0x80000000
 8000210:	ea4f 3303 	mov.w	r3, r3, lsl #12
 8000214:	ea4c 3313 	orr.w	r3, ip, r3, lsr #12
 8000218:	d002      	beq.n	8000220 <__adddf3+0x84>
 800021a:	4252      	negs	r2, r2
 800021c:	eb63 0343 	sbc.w	r3, r3, r3, lsl #1
 8000220:	ea94 0f05 	teq	r4, r5
 8000224:	f000 80a7 	beq.w	8000376 <__adddf3+0x1da>
 8000228:	f1a4 0401 	sub.w	r4, r4, #1
 800022c:	f1d5 0e20 	rsbs	lr, r5, #32
 8000230:	db0d      	blt.n	800024e <__adddf3+0xb2>
 8000232:	fa02 fc0e 	lsl.w	ip, r2, lr
 8000236:	fa22 f205 	lsr.w	r2, r2, r5
 800023a:	1880      	adds	r0, r0, r2
 800023c:	f141 0100 	adc.w	r1, r1, #0
 8000240:	fa03 f20e 	lsl.w	r2, r3, lr
 8000244:	1880      	adds	r0, r0, r2
 8000246:	fa43 f305 	asr.w	r3, r3, r5
 800024a:	4159      	adcs	r1, r3
 800024c:	e00e      	b.n	800026c <__adddf3+0xd0>
 800024e:	f1a5 0520 	sub.w	r5, r5, #32
 8000252:	f10e 0e20 	add.w	lr, lr, #32
 8000256:	2a01      	cmp	r2, #1
 8000258:	fa03 fc0e 	lsl.w	ip, r3, lr
 800025c:	bf28      	it	cs
 800025e:	f04c 0c02 	orrcs.w	ip, ip, #2
 8000262:	fa43 f305 	asr.w	r3, r3, r5
 8000266:	18c0      	adds	r0, r0, r3
 8000268:	eb51 71e3 	adcs.w	r1, r1, r3, asr #31
 800026c:	f001 4500 	and.w	r5, r1, #2147483648	; 0x80000000
 8000270:	d507      	bpl.n	8000282 <__adddf3+0xe6>
 8000272:	f04f 0e00 	mov.w	lr, #0
 8000276:	f1dc 0c00 	rsbs	ip, ip, #0
 800027a:	eb7e 0000 	sbcs.w	r0, lr, r0
 800027e:	eb6e 0101 	sbc.w	r1, lr, r1
 8000282:	f5b1 1f80 	cmp.w	r1, #1048576	; 0x100000
 8000286:	d31b      	bcc.n	80002c0 <__adddf3+0x124>
 8000288:	f5b1 1f00 	cmp.w	r1, #2097152	; 0x200000
 800028c:	d30c      	bcc.n	80002a8 <__adddf3+0x10c>
 800028e:	0849      	lsrs	r1, r1, #1
 8000290:	ea5f 0030 	movs.w	r0, r0, rrx
 8000294:	ea4f 0c3c 	mov.w	ip, ip, rrx
 8000298:	f104 0401 	add.w	r4, r4, #1
 800029c:	ea4f 5244 	mov.w	r2, r4, lsl #21
 80002a0:	f512 0f80 	cmn.w	r2, #4194304	; 0x400000
 80002a4:	f080 809a 	bcs.w	80003dc <__adddf3+0x240>
 80002a8:	f1bc 4f00 	cmp.w	ip, #2147483648	; 0x80000000
 80002ac:	bf08      	it	eq
 80002ae:	ea5f 0c50 	movseq.w	ip, r0, lsr #1
 80002b2:	f150 0000 	adcs.w	r0, r0, #0
 80002b6:	eb41 5104 	adc.w	r1, r1, r4, lsl #20
 80002ba:	ea41 0105 	orr.w	r1, r1, r5
 80002be:	bd30      	pop	{r4, r5, pc}
 80002c0:	ea5f 0c4c 	movs.w	ip, ip, lsl #1
 80002c4:	4140      	adcs	r0, r0
 80002c6:	eb41 0101 	adc.w	r1, r1, r1
 80002ca:	f411 1f80 	tst.w	r1, #1048576	; 0x100000
 80002ce:	f1a4 0401 	sub.w	r4, r4, #1
 80002d2:	d1e9      	bne.n	80002a8 <__adddf3+0x10c>
 80002d4:	f091 0f00 	teq	r1, #0
 80002d8:	bf04      	itt	eq
 80002da:	4601      	moveq	r1, r0
 80002dc:	2000      	moveq	r0, #0
 80002de:	fab1 f381 	clz	r3, r1
 80002e2:	bf08      	it	eq
 80002e4:	3320      	addeq	r3, #32
 80002e6:	f1a3 030b 	sub.w	r3, r3, #11
 80002ea:	f1b3 0220 	subs.w	r2, r3, #32
 80002ee:	da0c      	bge.n	800030a <__adddf3+0x16e>
 80002f0:	320c      	adds	r2, #12
 80002f2:	dd08      	ble.n	8000306 <__adddf3+0x16a>
 80002f4:	f102 0c14 	add.w	ip, r2, #20
 80002f8:	f1c2 020c 	rsb	r2, r2, #12
 80002fc:	fa01 f00c 	lsl.w	r0, r1, ip
 8000300:	fa21 f102 	lsr.w	r1, r1, r2
 8000304:	e00c      	b.n	8000320 <__adddf3+0x184>
 8000306:	f102 0214 	add.w	r2, r2, #20
 800030a:	bfd8      	it	le
 800030c:	f1c2 0c20 	rsble	ip, r2, #32
 8000310:	fa01 f102 	lsl.w	r1, r1, r2
 8000314:	fa20 fc0c 	lsr.w	ip, r0, ip
 8000318:	bfdc      	itt	le
 800031a:	ea41 010c 	orrle.w	r1, r1, ip
 800031e:	4090      	lslle	r0, r2
 8000320:	1ae4      	subs	r4, r4, r3
 8000322:	bfa2      	ittt	ge
 8000324:	eb01 5104 	addge.w	r1, r1, r4, lsl #20
 8000328:	4329      	orrge	r1, r5
 800032a:	bd30      	popge	{r4, r5, pc}
 800032c:	ea6f 0404 	mvn.w	r4, r4
 8000330:	3c1f      	subs	r4, #31
 8000332:	da1c      	bge.n	800036e <__adddf3+0x1d2>
 8000334:	340c      	adds	r4, #12
 8000336:	dc0e      	bgt.n	8000356 <__adddf3+0x1ba>
 8000338:	f104 0414 	add.w	r4, r4, #20
 800033c:	f1c4 0220 	rsb	r2, r4, #32
 8000340:	fa20 f004 	lsr.w	r0, r0, r4
 8000344:	fa01 f302 	lsl.w	r3, r1, r2
 8000348:	ea40 0003 	orr.w	r0, r0, r3
 800034c:	fa21 f304 	lsr.w	r3, r1, r4
 8000350:	ea45 0103 	orr.w	r1, r5, r3
 8000354:	bd30      	pop	{r4, r5, pc}
 8000356:	f1c4 040c 	rsb	r4, r4, #12
 800035a:	f1c4 0220 	rsb	r2, r4, #32
 800035e:	fa20 f002 	lsr.w	r0, r0, r2
 8000362:	fa01 f304 	lsl.w	r3, r1, r4
 8000366:	ea40 0003 	orr.w	r0, r0, r3
 800036a:	4629      	mov	r1, r5
 800036c:	bd30      	pop	{r4, r5, pc}
 800036e:	fa21 f004 	lsr.w	r0, r1, r4
 8000372:	4629      	mov	r1, r5
 8000374:	bd30      	pop	{r4, r5, pc}
 8000376:	f094 0f00 	teq	r4, #0
 800037a:	f483 1380 	eor.w	r3, r3, #1048576	; 0x100000
 800037e:	bf06      	itte	eq
 8000380:	f481 1180 	eoreq.w	r1, r1, #1048576	; 0x100000
 8000384:	3401      	addeq	r4, #1
 8000386:	3d01      	subne	r5, #1
 8000388:	e74e      	b.n	8000228 <__adddf3+0x8c>
 800038a:	ea7f 5c64 	mvns.w	ip, r4, asr #21
 800038e:	bf18      	it	ne
 8000390:	ea7f 5c65 	mvnsne.w	ip, r5, asr #21
 8000394:	d029      	beq.n	80003ea <__adddf3+0x24e>
 8000396:	ea94 0f05 	teq	r4, r5
 800039a:	bf08      	it	eq
 800039c:	ea90 0f02 	teqeq	r0, r2
 80003a0:	d005      	beq.n	80003ae <__adddf3+0x212>
 80003a2:	ea54 0c00 	orrs.w	ip, r4, r0
 80003a6:	bf04      	itt	eq
 80003a8:	4619      	moveq	r1, r3
 80003aa:	4610      	moveq	r0, r2
 80003ac:	bd30      	pop	{r4, r5, pc}
 80003ae:	ea91 0f03 	teq	r1, r3
 80003b2:	bf1e      	ittt	ne
 80003b4:	2100      	movne	r1, #0
 80003b6:	2000      	movne	r0, #0
 80003b8:	bd30      	popne	{r4, r5, pc}
 80003ba:	ea5f 5c54 	movs.w	ip, r4, lsr #21
 80003be:	d105      	bne.n	80003cc <__adddf3+0x230>
 80003c0:	0040      	lsls	r0, r0, #1
 80003c2:	4149      	adcs	r1, r1
 80003c4:	bf28      	it	cs
 80003c6:	f041 4100 	orrcs.w	r1, r1, #2147483648	; 0x80000000
 80003ca:	bd30      	pop	{r4, r5, pc}
 80003cc:	f514 0480 	adds.w	r4, r4, #4194304	; 0x400000
 80003d0:	bf3c      	itt	cc
 80003d2:	f501 1180 	addcc.w	r1, r1, #1048576	; 0x100000
 80003d6:	bd30      	popcc	{r4, r5, pc}
 80003d8:	f001 4500 	and.w	r5, r1, #2147483648	; 0x80000000
 80003dc:	f045 41fe 	orr.w	r1, r5, #2130706432	; 0x7f000000
 80003e0:	f441 0170 	orr.w	r1, r1, #15728640	; 0xf00000
 80003e4:	f04f 0000 	mov.w	r0, #0
 80003e8:	bd30      	pop	{r4, r5, pc}
 80003ea:	ea7f 5c64 	mvns.w	ip, r4, asr #21
 80003ee:	bf1a      	itte	ne
 80003f0:	4619      	movne	r1, r3
 80003f2:	4610      	movne	r0, r2
 80003f4:	ea7f 5c65 	mvnseq.w	ip, r5, asr #21
 80003f8:	bf1c      	itt	ne
 80003fa:	460b      	movne	r3, r1
 80003fc:	4602      	movne	r2, r0
 80003fe:	ea50 3401 	orrs.w	r4, r0, r1, lsl #12
 8000402:	bf06      	itte	eq
 8000404:	ea52 3503 	orrseq.w	r5, r2, r3, lsl #12
 8000408:	ea91 0f03 	teqeq	r1, r3
 800040c:	f441 2100 	orrne.w	r1, r1, #524288	; 0x80000
 8000410:	bd30      	pop	{r4, r5, pc}
 8000412:	bf00      	nop

08000414 <__aeabi_ui2d>:
 8000414:	f090 0f00 	teq	r0, #0
 8000418:	bf04      	itt	eq
 800041a:	2100      	moveq	r1, #0
 800041c:	4770      	bxeq	lr
 800041e:	b530      	push	{r4, r5, lr}
 8000420:	f44f 6480 	mov.w	r4, #1024	; 0x400
 8000424:	f104 0432 	add.w	r4, r4, #50	; 0x32
 8000428:	f04f 0500 	mov.w	r5, #0
 800042c:	f04f 0100 	mov.w	r1, #0
 8000430:	e750      	b.n	80002d4 <__adddf3+0x138>
 8000432:	bf00      	nop

08000434 <__aeabi_i2d>:
 8000434:	f090 0f00 	teq	r0, #0
 8000438:	bf04      	itt	eq
 800043a:	2100      	moveq	r1, #0
 800043c:	4770      	bxeq	lr
 800043e:	b530      	push	{r4, r5, lr}
 8000440:	f44f 6480 	mov.w	r4, #1024	; 0x400
 8000444:	f104 0432 	add.w	r4, r4, #50	; 0x32
 8000448:	f010 4500 	ands.w	r5, r0, #2147483648	; 0x80000000
 800044c:	bf48      	it	mi
 800044e:	4240      	negmi	r0, r0
 8000450:	f04f 0100 	mov.w	r1, #0
 8000454:	e73e      	b.n	80002d4 <__adddf3+0x138>
 8000456:	bf00      	nop

08000458 <__aeabi_f2d>:
 8000458:	0042      	lsls	r2, r0, #1
 800045a:	ea4f 01e2 	mov.w	r1, r2, asr #3
 800045e:	ea4f 0131 	mov.w	r1, r1, rrx
 8000462:	ea4f 7002 	mov.w	r0, r2, lsl #28
 8000466:	bf1f      	itttt	ne
 8000468:	f012 437f 	andsne.w	r3, r2, #4278190080	; 0xff000000
 800046c:	f093 4f7f 	teqne	r3, #4278190080	; 0xff000000
 8000470:	f081 5160 	eorne.w	r1, r1, #939524096	; 0x38000000
 8000474:	4770      	bxne	lr
 8000476:	f092 0f00 	teq	r2, #0
 800047a:	bf14      	ite	ne
 800047c:	f093 4f7f 	teqne	r3, #4278190080	; 0xff000000
 8000480:	4770      	bxeq	lr
 8000482:	b530      	push	{r4, r5, lr}
 8000484:	f44f 7460 	mov.w	r4, #896	; 0x380
 8000488:	f001 4500 	and.w	r5, r1, #2147483648	; 0x80000000
 800048c:	f021 4100 	bic.w	r1, r1, #2147483648	; 0x80000000
 8000490:	e720      	b.n	80002d4 <__adddf3+0x138>
 8000492:	bf00      	nop

08000494 <__aeabi_ul2d>:
 8000494:	ea50 0201 	orrs.w	r2, r0, r1
 8000498:	bf08      	it	eq
 800049a:	4770      	bxeq	lr
 800049c:	b530      	push	{r4, r5, lr}
 800049e:	f04f 0500 	mov.w	r5, #0
 80004a2:	e00a      	b.n	80004ba <__aeabi_l2d+0x16>

080004a4 <__aeabi_l2d>:
 80004a4:	ea50 0201 	orrs.w	r2, r0, r1
 80004a8:	bf08      	it	eq
 80004aa:	4770      	bxeq	lr
 80004ac:	b530      	push	{r4, r5, lr}
 80004ae:	f011 4500 	ands.w	r5, r1, #2147483648	; 0x80000000
 80004b2:	d502      	bpl.n	80004ba <__aeabi_l2d+0x16>
 80004b4:	4240      	negs	r0, r0
 80004b6:	eb61 0141 	sbc.w	r1, r1, r1, lsl #1
 80004ba:	f44f 6480 	mov.w	r4, #1024	; 0x400
 80004be:	f104 0432 	add.w	r4, r4, #50	; 0x32
 80004c2:	ea5f 5c91 	movs.w	ip, r1, lsr #22
 80004c6:	f43f aedc 	beq.w	8000282 <__adddf3+0xe6>
 80004ca:	f04f 0203 	mov.w	r2, #3
 80004ce:	ea5f 0cdc 	movs.w	ip, ip, lsr #3
 80004d2:	bf18      	it	ne
 80004d4:	3203      	addne	r2, #3
 80004d6:	ea5f 0cdc 	movs.w	ip, ip, lsr #3
 80004da:	bf18      	it	ne
 80004dc:	3203      	addne	r2, #3
 80004de:	eb02 02dc 	add.w	r2, r2, ip, lsr #3
 80004e2:	f1c2 0320 	rsb	r3, r2, #32
 80004e6:	fa00 fc03 	lsl.w	ip, r0, r3
 80004ea:	fa20 f002 	lsr.w	r0, r0, r2
 80004ee:	fa01 fe03 	lsl.w	lr, r1, r3
 80004f2:	ea40 000e 	orr.w	r0, r0, lr
 80004f6:	fa21 f102 	lsr.w	r1, r1, r2
 80004fa:	4414      	add	r4, r2
 80004fc:	e6c1      	b.n	8000282 <__adddf3+0xe6>
 80004fe:	bf00      	nop

08000500 <__aeabi_dmul>:
 8000500:	b570      	push	{r4, r5, r6, lr}
 8000502:	f04f 0cff 	mov.w	ip, #255	; 0xff
 8000506:	f44c 6ce0 	orr.w	ip, ip, #1792	; 0x700
 800050a:	ea1c 5411 	ands.w	r4, ip, r1, lsr #20
 800050e:	bf1d      	ittte	ne
 8000510:	ea1c 5513 	andsne.w	r5, ip, r3, lsr #20
 8000514:	ea94 0f0c 	teqne	r4, ip
 8000518:	ea95 0f0c 	teqne	r5, ip
 800051c:	f000 f8de 	bleq	80006dc <__aeabi_dmul+0x1dc>
 8000520:	442c      	add	r4, r5
 8000522:	ea81 0603 	eor.w	r6, r1, r3
 8000526:	ea21 514c 	bic.w	r1, r1, ip, lsl #21
 800052a:	ea23 534c 	bic.w	r3, r3, ip, lsl #21
 800052e:	ea50 3501 	orrs.w	r5, r0, r1, lsl #12
 8000532:	bf18      	it	ne
 8000534:	ea52 3503 	orrsne.w	r5, r2, r3, lsl #12
 8000538:	f441 1180 	orr.w	r1, r1, #1048576	; 0x100000
 800053c:	f443 1380 	orr.w	r3, r3, #1048576	; 0x100000
 8000540:	d038      	beq.n	80005b4 <__aeabi_dmul+0xb4>
 8000542:	fba0 ce02 	umull	ip, lr, r0, r2
 8000546:	f04f 0500 	mov.w	r5, #0
 800054a:	fbe1 e502 	umlal	lr, r5, r1, r2
 800054e:	f006 4200 	and.w	r2, r6, #2147483648	; 0x80000000
 8000552:	fbe0 e503 	umlal	lr, r5, r0, r3
 8000556:	f04f 0600 	mov.w	r6, #0
 800055a:	fbe1 5603 	umlal	r5, r6, r1, r3
 800055e:	f09c 0f00 	teq	ip, #0
 8000562:	bf18      	it	ne
 8000564:	f04e 0e01 	orrne.w	lr, lr, #1
 8000568:	f1a4 04ff 	sub.w	r4, r4, #255	; 0xff
 800056c:	f5b6 7f00 	cmp.w	r6, #512	; 0x200
 8000570:	f564 7440 	sbc.w	r4, r4, #768	; 0x300
 8000574:	d204      	bcs.n	8000580 <__aeabi_dmul+0x80>
 8000576:	ea5f 0e4e 	movs.w	lr, lr, lsl #1
 800057a:	416d      	adcs	r5, r5
 800057c:	eb46 0606 	adc.w	r6, r6, r6
 8000580:	ea42 21c6 	orr.w	r1, r2, r6, lsl #11
 8000584:	ea41 5155 	orr.w	r1, r1, r5, lsr #21
 8000588:	ea4f 20c5 	mov.w	r0, r5, lsl #11
 800058c:	ea40 505e 	orr.w	r0, r0, lr, lsr #21
 8000590:	ea4f 2ece 	mov.w	lr, lr, lsl #11
 8000594:	f1b4 0cfd 	subs.w	ip, r4, #253	; 0xfd
 8000598:	bf88      	it	hi
 800059a:	f5bc 6fe0 	cmphi.w	ip, #1792	; 0x700
 800059e:	d81e      	bhi.n	80005de <__aeabi_dmul+0xde>
 80005a0:	f1be 4f00 	cmp.w	lr, #2147483648	; 0x80000000
 80005a4:	bf08      	it	eq
 80005a6:	ea5f 0e50 	movseq.w	lr, r0, lsr #1
 80005aa:	f150 0000 	adcs.w	r0, r0, #0
 80005ae:	eb41 5104 	adc.w	r1, r1, r4, lsl #20
 80005b2:	bd70      	pop	{r4, r5, r6, pc}
 80005b4:	f006 4600 	and.w	r6, r6, #2147483648	; 0x80000000
 80005b8:	ea46 0101 	orr.w	r1, r6, r1
 80005bc:	ea40 0002 	orr.w	r0, r0, r2
 80005c0:	ea81 0103 	eor.w	r1, r1, r3
 80005c4:	ebb4 045c 	subs.w	r4, r4, ip, lsr #1
 80005c8:	bfc2      	ittt	gt
 80005ca:	ebd4 050c 	rsbsgt	r5, r4, ip
 80005ce:	ea41 5104 	orrgt.w	r1, r1, r4, lsl #20
 80005d2:	bd70      	popgt	{r4, r5, r6, pc}
 80005d4:	f441 1180 	orr.w	r1, r1, #1048576	; 0x100000
 80005d8:	f04f 0e00 	mov.w	lr, #0
 80005dc:	3c01      	subs	r4, #1
 80005de:	f300 80ab 	bgt.w	8000738 <__aeabi_dmul+0x238>
 80005e2:	f114 0f36 	cmn.w	r4, #54	; 0x36
 80005e6:	bfde      	ittt	le
 80005e8:	2000      	movle	r0, #0
 80005ea:	f001 4100 	andle.w	r1, r1, #2147483648	; 0x80000000
 80005ee:	bd70      	pople	{r4, r5, r6, pc}
 80005f0:	f1c4 0400 	rsb	r4, r4, #0
 80005f4:	3c20      	subs	r4, #32
 80005f6:	da35      	bge.n	8000664 <__aeabi_dmul+0x164>
 80005f8:	340c      	adds	r4, #12
 80005fa:	dc1b      	bgt.n	8000634 <__aeabi_dmul+0x134>
 80005fc:	f104 0414 	add.w	r4, r4, #20
 8000600:	f1c4 0520 	rsb	r5, r4, #32
 8000604:	fa00 f305 	lsl.w	r3, r0, r5
 8000608:	fa20 f004 	lsr.w	r0, r0, r4
 800060c:	fa01 f205 	lsl.w	r2, r1, r5
 8000610:	ea40 0002 	orr.w	r0, r0, r2
 8000614:	f001 4200 	and.w	r2, r1, #2147483648	; 0x80000000
 8000618:	f021 4100 	bic.w	r1, r1, #2147483648	; 0x80000000
 800061c:	eb10 70d3 	adds.w	r0, r0, r3, lsr #31
 8000620:	fa21 f604 	lsr.w	r6, r1, r4
 8000624:	eb42 0106 	adc.w	r1, r2, r6
 8000628:	ea5e 0e43 	orrs.w	lr, lr, r3, lsl #1
 800062c:	bf08      	it	eq
 800062e:	ea20 70d3 	biceq.w	r0, r0, r3, lsr #31
 8000632:	bd70      	pop	{r4, r5, r6, pc}
 8000634:	f1c4 040c 	rsb	r4, r4, #12
 8000638:	f1c4 0520 	rsb	r5, r4, #32
 800063c:	fa00 f304 	lsl.w	r3, r0, r4
 8000640:	fa20 f005 	lsr.w	r0, r0, r5
 8000644:	fa01 f204 	lsl.w	r2, r1, r4
 8000648:	ea40 0002 	orr.w	r0, r0, r2
 800064c:	f001 4100 	and.w	r1, r1, #2147483648	; 0x80000000
 8000650:	eb10 70d3 	adds.w	r0, r0, r3, lsr #31
 8000654:	f141 0100 	adc.w	r1, r1, #0
 8000658:	ea5e 0e43 	orrs.w	lr, lr, r3, lsl #1
 800065c:	bf08      	it	eq
 800065e:	ea20 70d3 	biceq.w	r0, r0, r3, lsr #31
 8000662:	bd70      	pop	{r4, r5, r6, pc}
 8000664:	f1c4 0520 	rsb	r5, r4, #32
 8000668:	fa00 f205 	lsl.w	r2, r0, r5
 800066c:	ea4e 0e02 	orr.w	lr, lr, r2
 8000670:	fa20 f304 	lsr.w	r3, r0, r4
 8000674:	fa01 f205 	lsl.w	r2, r1, r5
 8000678:	ea43 0302 	orr.w	r3, r3, r2
 800067c:	fa21 f004 	lsr.w	r0, r1, r4
 8000680:	f001 4100 	and.w	r1, r1, #2147483648	; 0x80000000
 8000684:	fa21 f204 	lsr.w	r2, r1, r4
 8000688:	ea20 0002 	bic.w	r0, r0, r2
 800068c:	eb00 70d3 	add.w	r0, r0, r3, lsr #31
 8000690:	ea5e 0e43 	orrs.w	lr, lr, r3, lsl #1
 8000694:	bf08      	it	eq
 8000696:	ea20 70d3 	biceq.w	r0, r0, r3, lsr #31
 800069a:	bd70      	pop	{r4, r5, r6, pc}
 800069c:	f094 0f00 	teq	r4, #0
 80006a0:	d10f      	bne.n	80006c2 <__aeabi_dmul+0x1c2>
 80006a2:	f001 4600 	and.w	r6, r1, #2147483648	; 0x80000000
 80006a6:	0040      	lsls	r0, r0, #1
 80006a8:	eb41 0101 	adc.w	r1, r1, r1
 80006ac:	f411 1f80 	tst.w	r1, #1048576	; 0x100000
 80006b0:	bf08      	it	eq
 80006b2:	3c01      	subeq	r4, #1
 80006b4:	d0f7      	beq.n	80006a6 <__aeabi_dmul+0x1a6>
 80006b6:	ea41 0106 	orr.w	r1, r1, r6
 80006ba:	f095 0f00 	teq	r5, #0
 80006be:	bf18      	it	ne
 80006c0:	4770      	bxne	lr
 80006c2:	f003 4600 	and.w	r6, r3, #2147483648	; 0x80000000
 80006c6:	0052      	lsls	r2, r2, #1
 80006c8:	eb43 0303 	adc.w	r3, r3, r3
 80006cc:	f413 1f80 	tst.w	r3, #1048576	; 0x100000
 80006d0:	bf08      	it	eq
 80006d2:	3d01      	subeq	r5, #1
 80006d4:	d0f7      	beq.n	80006c6 <__aeabi_dmul+0x1c6>
 80006d6:	ea43 0306 	orr.w	r3, r3, r6
 80006da:	4770      	bx	lr
 80006dc:	ea94 0f0c 	teq	r4, ip
 80006e0:	ea0c 5513 	and.w	r5, ip, r3, lsr #20
 80006e4:	bf18      	it	ne
 80006e6:	ea95 0f0c 	teqne	r5, ip
 80006ea:	d00c      	beq.n	8000706 <__aeabi_dmul+0x206>
 80006ec:	ea50 0641 	orrs.w	r6, r0, r1, lsl #1
 80006f0:	bf18      	it	ne
 80006f2:	ea52 0643 	orrsne.w	r6, r2, r3, lsl #1
 80006f6:	d1d1      	bne.n	800069c <__aeabi_dmul+0x19c>
 80006f8:	ea81 0103 	eor.w	r1, r1, r3
 80006fc:	f001 4100 	and.w	r1, r1, #2147483648	; 0x80000000
 8000700:	f04f 0000 	mov.w	r0, #0
 8000704:	bd70      	pop	{r4, r5, r6, pc}
 8000706:	ea50 0641 	orrs.w	r6, r0, r1, lsl #1
 800070a:	bf06      	itte	eq
 800070c:	4610      	moveq	r0, r2
 800070e:	4619      	moveq	r1, r3
 8000710:	ea52 0643 	orrsne.w	r6, r2, r3, lsl #1
 8000714:	d019      	beq.n	800074a <__aeabi_dmul+0x24a>
 8000716:	ea94 0f0c 	teq	r4, ip
 800071a:	d102      	bne.n	8000722 <__aeabi_dmul+0x222>
 800071c:	ea50 3601 	orrs.w	r6, r0, r1, lsl #12
 8000720:	d113      	bne.n	800074a <__aeabi_dmul+0x24a>
 8000722:	ea95 0f0c 	teq	r5, ip
 8000726:	d105      	bne.n	8000734 <__aeabi_dmul+0x234>
 8000728:	ea52 3603 	orrs.w	r6, r2, r3, lsl #12
 800072c:	bf1c      	itt	ne
 800072e:	4610      	movne	r0, r2
 8000730:	4619      	movne	r1, r3
 8000732:	d10a      	bne.n	800074a <__aeabi_dmul+0x24a>
 8000734:	ea81 0103 	eor.w	r1, r1, r3
 8000738:	f001 4100 	and.w	r1, r1, #2147483648	; 0x80000000
 800073c:	f041 41fe 	orr.w	r1, r1, #2130706432	; 0x7f000000
 8000740:	f441 0170 	orr.w	r1, r1, #15728640	; 0xf00000
 8000744:	f04f 0000 	mov.w	r0, #0
 8000748:	bd70      	pop	{r4, r5, r6, pc}
 800074a:	f041 41fe 	orr.w	r1, r1, #2130706432	; 0x7f000000
 800074e:	f441 0178 	orr.w	r1, r1, #16252928	; 0xf80000
 8000752:	bd70      	pop	{r4, r5, r6, pc}

08000754 <__aeabi_ddiv>:
 8000754:	b570      	push	{r4, r5, r6, lr}
 8000756:	f04f 0cff 	mov.w	ip, #255	; 0xff
 800075a:	f44c 6ce0 	orr.w	ip, ip, #1792	; 0x700
 800075e:	ea1c 5411 	ands.w	r4, ip, r1, lsr #20
 8000762:	bf1d      	ittte	ne
 8000764:	ea1c 5513 	andsne.w	r5, ip, r3, lsr #20
 8000768:	ea94 0f0c 	teqne	r4, ip
 800076c:	ea95 0f0c 	teqne	r5, ip
 8000770:	f000 f8a7 	bleq	80008c2 <__aeabi_ddiv+0x16e>
 8000774:	eba4 0405 	sub.w	r4, r4, r5
 8000778:	ea81 0e03 	eor.w	lr, r1, r3
 800077c:	ea52 3503 	orrs.w	r5, r2, r3, lsl #12
 8000780:	ea4f 3101 	mov.w	r1, r1, lsl #12
 8000784:	f000 8088 	beq.w	8000898 <__aeabi_ddiv+0x144>
 8000788:	ea4f 3303 	mov.w	r3, r3, lsl #12
 800078c:	f04f 5580 	mov.w	r5, #268435456	; 0x10000000
 8000790:	ea45 1313 	orr.w	r3, r5, r3, lsr #4
 8000794:	ea43 6312 	orr.w	r3, r3, r2, lsr #24
 8000798:	ea4f 2202 	mov.w	r2, r2, lsl #8
 800079c:	ea45 1511 	orr.w	r5, r5, r1, lsr #4
 80007a0:	ea45 6510 	orr.w	r5, r5, r0, lsr #24
 80007a4:	ea4f 2600 	mov.w	r6, r0, lsl #8
 80007a8:	f00e 4100 	and.w	r1, lr, #2147483648	; 0x80000000
 80007ac:	429d      	cmp	r5, r3
 80007ae:	bf08      	it	eq
 80007b0:	4296      	cmpeq	r6, r2
 80007b2:	f144 04fd 	adc.w	r4, r4, #253	; 0xfd
 80007b6:	f504 7440 	add.w	r4, r4, #768	; 0x300
 80007ba:	d202      	bcs.n	80007c2 <__aeabi_ddiv+0x6e>
 80007bc:	085b      	lsrs	r3, r3, #1
 80007be:	ea4f 0232 	mov.w	r2, r2, rrx
 80007c2:	1ab6      	subs	r6, r6, r2
 80007c4:	eb65 0503 	sbc.w	r5, r5, r3
 80007c8:	085b      	lsrs	r3, r3, #1
 80007ca:	ea4f 0232 	mov.w	r2, r2, rrx
 80007ce:	f44f 1080 	mov.w	r0, #1048576	; 0x100000
 80007d2:	f44f 2c00 	mov.w	ip, #524288	; 0x80000
 80007d6:	ebb6 0e02 	subs.w	lr, r6, r2
 80007da:	eb75 0e03 	sbcs.w	lr, r5, r3
 80007de:	bf22      	ittt	cs
 80007e0:	1ab6      	subcs	r6, r6, r2
 80007e2:	4675      	movcs	r5, lr
 80007e4:	ea40 000c 	orrcs.w	r0, r0, ip
 80007e8:	085b      	lsrs	r3, r3, #1
 80007ea:	ea4f 0232 	mov.w	r2, r2, rrx
 80007ee:	ebb6 0e02 	subs.w	lr, r6, r2
 80007f2:	eb75 0e03 	sbcs.w	lr, r5, r3
 80007f6:	bf22      	ittt	cs
 80007f8:	1ab6      	subcs	r6, r6, r2
 80007fa:	4675      	movcs	r5, lr
 80007fc:	ea40 005c 	orrcs.w	r0, r0, ip, lsr #1
 8000800:	085b      	lsrs	r3, r3, #1
 8000802:	ea4f 0232 	mov.w	r2, r2, rrx
 8000806:	ebb6 0e02 	subs.w	lr, r6, r2
 800080a:	eb75 0e03 	sbcs.w	lr, r5, r3
 800080e:	bf22      	ittt	cs
 8000810:	1ab6      	subcs	r6, r6, r2
 8000812:	4675      	movcs	r5, lr
 8000814:	ea40 009c 	orrcs.w	r0, r0, ip, lsr #2
 8000818:	085b      	lsrs	r3, r3, #1
 800081a:	ea4f 0232 	mov.w	r2, r2, rrx
 800081e:	ebb6 0e02 	subs.w	lr, r6, r2
 8000822:	eb75 0e03 	sbcs.w	lr, r5, r3
 8000826:	bf22      	ittt	cs
 8000828:	1ab6      	subcs	r6, r6, r2
 800082a:	4675      	movcs	r5, lr
 800082c:	ea40 00dc 	orrcs.w	r0, r0, ip, lsr #3
 8000830:	ea55 0e06 	orrs.w	lr, r5, r6
 8000834:	d018      	beq.n	8000868 <__aeabi_ddiv+0x114>
 8000836:	ea4f 1505 	mov.w	r5, r5, lsl #4
 800083a:	ea45 7516 	orr.w	r5, r5, r6, lsr #28
 800083e:	ea4f 1606 	mov.w	r6, r6, lsl #4
 8000842:	ea4f 03c3 	mov.w	r3, r3, lsl #3
 8000846:	ea43 7352 	orr.w	r3, r3, r2, lsr #29
 800084a:	ea4f 02c2 	mov.w	r2, r2, lsl #3
 800084e:	ea5f 1c1c 	movs.w	ip, ip, lsr #4
 8000852:	d1c0      	bne.n	80007d6 <__aeabi_ddiv+0x82>
 8000854:	f411 1f80 	tst.w	r1, #1048576	; 0x100000
 8000858:	d10b      	bne.n	8000872 <__aeabi_ddiv+0x11e>
 800085a:	ea41 0100 	orr.w	r1, r1, r0
 800085e:	f04f 0000 	mov.w	r0, #0
 8000862:	f04f 4c00 	mov.w	ip, #2147483648	; 0x80000000
 8000866:	e7b6      	b.n	80007d6 <__aeabi_ddiv+0x82>
 8000868:	f411 1f80 	tst.w	r1, #1048576	; 0x100000
 800086c:	bf04      	itt	eq
 800086e:	4301      	orreq	r1, r0
 8000870:	2000      	moveq	r0, #0
 8000872:	f1b4 0cfd 	subs.w	ip, r4, #253	; 0xfd
 8000876:	bf88      	it	hi
 8000878:	f5bc 6fe0 	cmphi.w	ip, #1792	; 0x700
 800087c:	f63f aeaf 	bhi.w	80005de <__aeabi_dmul+0xde>
 8000880:	ebb5 0c03 	subs.w	ip, r5, r3
 8000884:	bf04      	itt	eq
 8000886:	ebb6 0c02 	subseq.w	ip, r6, r2
 800088a:	ea5f 0c50 	movseq.w	ip, r0, lsr #1
 800088e:	f150 0000 	adcs.w	r0, r0, #0
 8000892:	eb41 5104 	adc.w	r1, r1, r4, lsl #20
 8000896:	bd70      	pop	{r4, r5, r6, pc}
 8000898:	f00e 4e00 	and.w	lr, lr, #2147483648	; 0x80000000
 800089c:	ea4e 3111 	orr.w	r1, lr, r1, lsr #12
 80008a0:	eb14 045c 	adds.w	r4, r4, ip, lsr #1
 80008a4:	bfc2      	ittt	gt
 80008a6:	ebd4 050c 	rsbsgt	r5, r4, ip
 80008aa:	ea41 5104 	orrgt.w	r1, r1, r4, lsl #20
 80008ae:	bd70      	popgt	{r4, r5, r6, pc}
 80008b0:	f441 1180 	orr.w	r1, r1, #1048576	; 0x100000
 80008b4:	f04f 0e00 	mov.w	lr, #0
 80008b8:	3c01      	subs	r4, #1
 80008ba:	e690      	b.n	80005de <__aeabi_dmul+0xde>
 80008bc:	ea45 0e06 	orr.w	lr, r5, r6
 80008c0:	e68d      	b.n	80005de <__aeabi_dmul+0xde>
 80008c2:	ea0c 5513 	and.w	r5, ip, r3, lsr #20
 80008c6:	ea94 0f0c 	teq	r4, ip
 80008ca:	bf08      	it	eq
 80008cc:	ea95 0f0c 	teqeq	r5, ip
 80008d0:	f43f af3b 	beq.w	800074a <__aeabi_dmul+0x24a>
 80008d4:	ea94 0f0c 	teq	r4, ip
 80008d8:	d10a      	bne.n	80008f0 <__aeabi_ddiv+0x19c>
 80008da:	ea50 3401 	orrs.w	r4, r0, r1, lsl #12
 80008de:	f47f af34 	bne.w	800074a <__aeabi_dmul+0x24a>
 80008e2:	ea95 0f0c 	teq	r5, ip
 80008e6:	f47f af25 	bne.w	8000734 <__aeabi_dmul+0x234>
 80008ea:	4610      	mov	r0, r2
 80008ec:	4619      	mov	r1, r3
 80008ee:	e72c      	b.n	800074a <__aeabi_dmul+0x24a>
 80008f0:	ea95 0f0c 	teq	r5, ip
 80008f4:	d106      	bne.n	8000904 <__aeabi_ddiv+0x1b0>
 80008f6:	ea52 3503 	orrs.w	r5, r2, r3, lsl #12
 80008fa:	f43f aefd 	beq.w	80006f8 <__aeabi_dmul+0x1f8>
 80008fe:	4610      	mov	r0, r2
 8000900:	4619      	mov	r1, r3
 8000902:	e722      	b.n	800074a <__aeabi_dmul+0x24a>
 8000904:	ea50 0641 	orrs.w	r6, r0, r1, lsl #1
 8000908:	bf18      	it	ne
 800090a:	ea52 0643 	orrsne.w	r6, r2, r3, lsl #1
 800090e:	f47f aec5 	bne.w	800069c <__aeabi_dmul+0x19c>
 8000912:	ea50 0441 	orrs.w	r4, r0, r1, lsl #1
 8000916:	f47f af0d 	bne.w	8000734 <__aeabi_dmul+0x234>
 800091a:	ea52 0543 	orrs.w	r5, r2, r3, lsl #1
 800091e:	f47f aeeb 	bne.w	80006f8 <__aeabi_dmul+0x1f8>
 8000922:	e712      	b.n	800074a <__aeabi_dmul+0x24a>

08000924 <__gedf2>:
 8000924:	f04f 3cff 	mov.w	ip, #4294967295
 8000928:	e006      	b.n	8000938 <__cmpdf2+0x4>
 800092a:	bf00      	nop

0800092c <__ledf2>:
 800092c:	f04f 0c01 	mov.w	ip, #1
 8000930:	e002      	b.n	8000938 <__cmpdf2+0x4>
 8000932:	bf00      	nop

08000934 <__cmpdf2>:
 8000934:	f04f 0c01 	mov.w	ip, #1
 8000938:	f84d cd04 	str.w	ip, [sp, #-4]!
 800093c:	ea4f 0c41 	mov.w	ip, r1, lsl #1
 8000940:	ea7f 5c6c 	mvns.w	ip, ip, asr #21
 8000944:	ea4f 0c43 	mov.w	ip, r3, lsl #1
 8000948:	bf18      	it	ne
 800094a:	ea7f 5c6c 	mvnsne.w	ip, ip, asr #21
 800094e:	d01b      	beq.n	8000988 <__cmpdf2+0x54>
 8000950:	b001      	add	sp, #4
 8000952:	ea50 0c41 	orrs.w	ip, r0, r1, lsl #1
 8000956:	bf0c      	ite	eq
 8000958:	ea52 0c43 	orrseq.w	ip, r2, r3, lsl #1
 800095c:	ea91 0f03 	teqne	r1, r3
 8000960:	bf02      	ittt	eq
 8000962:	ea90 0f02 	teqeq	r0, r2
 8000966:	2000      	moveq	r0, #0
 8000968:	4770      	bxeq	lr
 800096a:	f110 0f00 	cmn.w	r0, #0
 800096e:	ea91 0f03 	teq	r1, r3
 8000972:	bf58      	it	pl
 8000974:	4299      	cmppl	r1, r3
 8000976:	bf08      	it	eq
 8000978:	4290      	cmpeq	r0, r2
 800097a:	bf2c      	ite	cs
 800097c:	17d8      	asrcs	r0, r3, #31
 800097e:	ea6f 70e3 	mvncc.w	r0, r3, asr #31
 8000982:	f040 0001 	orr.w	r0, r0, #1
 8000986:	4770      	bx	lr
 8000988:	ea4f 0c41 	mov.w	ip, r1, lsl #1
 800098c:	ea7f 5c6c 	mvns.w	ip, ip, asr #21
 8000990:	d102      	bne.n	8000998 <__cmpdf2+0x64>
 8000992:	ea50 3c01 	orrs.w	ip, r0, r1, lsl #12
 8000996:	d107      	bne.n	80009a8 <__cmpdf2+0x74>
 8000998:	ea4f 0c43 	mov.w	ip, r3, lsl #1
 800099c:	ea7f 5c6c 	mvns.w	ip, ip, asr #21
 80009a0:	d1d6      	bne.n	8000950 <__cmpdf2+0x1c>
 80009a2:	ea52 3c03 	orrs.w	ip, r2, r3, lsl #12
 80009a6:	d0d3      	beq.n	8000950 <__cmpdf2+0x1c>
 80009a8:	f85d 0b04 	ldr.w	r0, [sp], #4
 80009ac:	4770      	bx	lr
 80009ae:	bf00      	nop

080009b0 <__aeabi_cdrcmple>:
 80009b0:	4684      	mov	ip, r0
 80009b2:	4610      	mov	r0, r2
 80009b4:	4662      	mov	r2, ip
 80009b6:	468c      	mov	ip, r1
 80009b8:	4619      	mov	r1, r3
 80009ba:	4663      	mov	r3, ip
 80009bc:	e000      	b.n	80009c0 <__aeabi_cdcmpeq>
 80009be:	bf00      	nop

080009c0 <__aeabi_cdcmpeq>:
 80009c0:	b501      	push	{r0, lr}
 80009c2:	f7ff ffb7 	bl	8000934 <__cmpdf2>
 80009c6:	2800      	cmp	r0, #0
 80009c8:	bf48      	it	mi
 80009ca:	f110 0f00 	cmnmi.w	r0, #0
 80009ce:	bd01      	pop	{r0, pc}

080009d0 <__aeabi_dcmpeq>:
 80009d0:	f84d ed08 	str.w	lr, [sp, #-8]!
 80009d4:	f7ff fff4 	bl	80009c0 <__aeabi_cdcmpeq>
 80009d8:	bf0c      	ite	eq
 80009da:	2001      	moveq	r0, #1
 80009dc:	2000      	movne	r0, #0
 80009de:	f85d fb08 	ldr.w	pc, [sp], #8
 80009e2:	bf00      	nop

080009e4 <__aeabi_dcmplt>:
 80009e4:	f84d ed08 	str.w	lr, [sp, #-8]!
 80009e8:	f7ff ffea 	bl	80009c0 <__aeabi_cdcmpeq>
 80009ec:	bf34      	ite	cc
 80009ee:	2001      	movcc	r0, #1
 80009f0:	2000      	movcs	r0, #0
 80009f2:	f85d fb08 	ldr.w	pc, [sp], #8
 80009f6:	bf00      	nop

080009f8 <__aeabi_dcmple>:
 80009f8:	f84d ed08 	str.w	lr, [sp, #-8]!
 80009fc:	f7ff ffe0 	bl	80009c0 <__aeabi_cdcmpeq>
 8000a00:	bf94      	ite	ls
 8000a02:	2001      	movls	r0, #1
 8000a04:	2000      	movhi	r0, #0
 8000a06:	f85d fb08 	ldr.w	pc, [sp], #8
 8000a0a:	bf00      	nop

08000a0c <__aeabi_dcmpge>:
 8000a0c:	f84d ed08 	str.w	lr, [sp, #-8]!
 8000a10:	f7ff ffce 	bl	80009b0 <__aeabi_cdrcmple>
 8000a14:	bf94      	ite	ls
 8000a16:	2001      	movls	r0, #1
 8000a18:	2000      	movhi	r0, #0
 8000a1a:	f85d fb08 	ldr.w	pc, [sp], #8
 8000a1e:	bf00      	nop

08000a20 <__aeabi_dcmpgt>:
 8000a20:	f84d ed08 	str.w	lr, [sp, #-8]!
 8000a24:	f7ff ffc4 	bl	80009b0 <__aeabi_cdrcmple>
 8000a28:	bf34      	ite	cc
 8000a2a:	2001      	movcc	r0, #1
 8000a2c:	2000      	movcs	r0, #0
 8000a2e:	f85d fb08 	ldr.w	pc, [sp], #8
 8000a32:	bf00      	nop

08000a34 <__aeabi_dcmpun>:
 8000a34:	ea4f 0c41 	mov.w	ip, r1, lsl #1
 8000a38:	ea7f 5c6c 	mvns.w	ip, ip, asr #21
 8000a3c:	d102      	bne.n	8000a44 <__aeabi_dcmpun+0x10>
 8000a3e:	ea50 3c01 	orrs.w	ip, r0, r1, lsl #12
 8000a42:	d10a      	bne.n	8000a5a <__aeabi_dcmpun+0x26>
 8000a44:	ea4f 0c43 	mov.w	ip, r3, lsl #1
 8000a48:	ea7f 5c6c 	mvns.w	ip, ip, asr #21
 8000a4c:	d102      	bne.n	8000a54 <__aeabi_dcmpun+0x20>
 8000a4e:	ea52 3c03 	orrs.w	ip, r2, r3, lsl #12
 8000a52:	d102      	bne.n	8000a5a <__aeabi_dcmpun+0x26>
 8000a54:	f04f 0000 	mov.w	r0, #0
 8000a58:	4770      	bx	lr
 8000a5a:	f04f 0001 	mov.w	r0, #1
 8000a5e:	4770      	bx	lr

08000a60 <__aeabi_d2iz>:
 8000a60:	ea4f 0241 	mov.w	r2, r1, lsl #1
 8000a64:	f512 1200 	adds.w	r2, r2, #2097152	; 0x200000
 8000a68:	d215      	bcs.n	8000a96 <__aeabi_d2iz+0x36>
 8000a6a:	d511      	bpl.n	8000a90 <__aeabi_d2iz+0x30>
 8000a6c:	f46f 7378 	mvn.w	r3, #992	; 0x3e0
 8000a70:	ebb3 5262 	subs.w	r2, r3, r2, asr #21
 8000a74:	d912      	bls.n	8000a9c <__aeabi_d2iz+0x3c>
 8000a76:	ea4f 23c1 	mov.w	r3, r1, lsl #11
 8000a7a:	f043 4300 	orr.w	r3, r3, #2147483648	; 0x80000000
 8000a7e:	ea43 5350 	orr.w	r3, r3, r0, lsr #21
 8000a82:	f011 4f00 	tst.w	r1, #2147483648	; 0x80000000
 8000a86:	fa23 f002 	lsr.w	r0, r3, r2
 8000a8a:	bf18      	it	ne
 8000a8c:	4240      	negne	r0, r0
 8000a8e:	4770      	bx	lr
 8000a90:	f04f 0000 	mov.w	r0, #0
 8000a94:	4770      	bx	lr
 8000a96:	ea50 3001 	orrs.w	r0, r0, r1, lsl #12
 8000a9a:	d105      	bne.n	8000aa8 <__aeabi_d2iz+0x48>
 8000a9c:	f011 4000 	ands.w	r0, r1, #2147483648	; 0x80000000
 8000aa0:	bf08      	it	eq
 8000aa2:	f06f 4000 	mvneq.w	r0, #2147483648	; 0x80000000
 8000aa6:	4770      	bx	lr
 8000aa8:	f04f 0000 	mov.w	r0, #0
 8000aac:	4770      	bx	lr
 8000aae:	bf00      	nop

08000ab0 <__aeabi_d2f>:
 8000ab0:	ea4f 0241 	mov.w	r2, r1, lsl #1
 8000ab4:	f1b2 43e0 	subs.w	r3, r2, #1879048192	; 0x70000000
 8000ab8:	bf24      	itt	cs
 8000aba:	f5b3 1c00 	subscs.w	ip, r3, #2097152	; 0x200000
 8000abe:	f1dc 5cfe 	rsbscs	ip, ip, #532676608	; 0x1fc00000
 8000ac2:	d90d      	bls.n	8000ae0 <__aeabi_d2f+0x30>
 8000ac4:	f001 4c00 	and.w	ip, r1, #2147483648	; 0x80000000
 8000ac8:	ea4f 02c0 	mov.w	r2, r0, lsl #3
 8000acc:	ea4c 7050 	orr.w	r0, ip, r0, lsr #29
 8000ad0:	f1b2 4f00 	cmp.w	r2, #2147483648	; 0x80000000
 8000ad4:	eb40 0083 	adc.w	r0, r0, r3, lsl #2
 8000ad8:	bf08      	it	eq
 8000ada:	f020 0001 	biceq.w	r0, r0, #1
 8000ade:	4770      	bx	lr
 8000ae0:	f011 4f80 	tst.w	r1, #1073741824	; 0x40000000
 8000ae4:	d121      	bne.n	8000b2a <__aeabi_d2f+0x7a>
 8000ae6:	f113 7238 	adds.w	r2, r3, #48234496	; 0x2e00000
 8000aea:	bfbc      	itt	lt
 8000aec:	f001 4000 	andlt.w	r0, r1, #2147483648	; 0x80000000
 8000af0:	4770      	bxlt	lr
 8000af2:	f441 1180 	orr.w	r1, r1, #1048576	; 0x100000
 8000af6:	ea4f 5252 	mov.w	r2, r2, lsr #21
 8000afa:	f1c2 0218 	rsb	r2, r2, #24
 8000afe:	f1c2 0c20 	rsb	ip, r2, #32
 8000b02:	fa10 f30c 	lsls.w	r3, r0, ip
 8000b06:	fa20 f002 	lsr.w	r0, r0, r2
 8000b0a:	bf18      	it	ne
 8000b0c:	f040 0001 	orrne.w	r0, r0, #1
 8000b10:	ea4f 23c1 	mov.w	r3, r1, lsl #11
 8000b14:	ea4f 23d3 	mov.w	r3, r3, lsr #11
 8000b18:	fa03 fc0c 	lsl.w	ip, r3, ip
 8000b1c:	ea40 000c 	orr.w	r0, r0, ip
 8000b20:	fa23 f302 	lsr.w	r3, r3, r2
 8000b24:	ea4f 0343 	mov.w	r3, r3, lsl #1
 8000b28:	e7cc      	b.n	8000ac4 <__aeabi_d2f+0x14>
 8000b2a:	ea7f 5362 	mvns.w	r3, r2, asr #21
 8000b2e:	d107      	bne.n	8000b40 <__aeabi_d2f+0x90>
 8000b30:	ea50 3301 	orrs.w	r3, r0, r1, lsl #12
 8000b34:	bf1e      	ittt	ne
 8000b36:	f04f 40fe 	movne.w	r0, #2130706432	; 0x7f000000
 8000b3a:	f440 0040 	orrne.w	r0, r0, #12582912	; 0xc00000
 8000b3e:	4770      	bxne	lr
 8000b40:	f001 4000 	and.w	r0, r1, #2147483648	; 0x80000000
 8000b44:	f040 40fe 	orr.w	r0, r0, #2130706432	; 0x7f000000
 8000b48:	f440 0000 	orr.w	r0, r0, #8388608	; 0x800000
 8000b4c:	4770      	bx	lr
 8000b4e:	bf00      	nop

08000b50 <__aeabi_frsub>:
 8000b50:	f080 4000 	eor.w	r0, r0, #2147483648	; 0x80000000
 8000b54:	e002      	b.n	8000b5c <__addsf3>
 8000b56:	bf00      	nop

08000b58 <__aeabi_fsub>:
 8000b58:	f081 4100 	eor.w	r1, r1, #2147483648	; 0x80000000

08000b5c <__addsf3>:
 8000b5c:	0042      	lsls	r2, r0, #1
 8000b5e:	bf1f      	itttt	ne
 8000b60:	ea5f 0341 	movsne.w	r3, r1, lsl #1
 8000b64:	ea92 0f03 	teqne	r2, r3
 8000b68:	ea7f 6c22 	mvnsne.w	ip, r2, asr #24
 8000b6c:	ea7f 6c23 	mvnsne.w	ip, r3, asr #24
 8000b70:	d06a      	beq.n	8000c48 <__addsf3+0xec>
 8000b72:	ea4f 6212 	mov.w	r2, r2, lsr #24
 8000b76:	ebd2 6313 	rsbs	r3, r2, r3, lsr #24
 8000b7a:	bfc1      	itttt	gt
 8000b7c:	18d2      	addgt	r2, r2, r3
 8000b7e:	4041      	eorgt	r1, r0
 8000b80:	4048      	eorgt	r0, r1
 8000b82:	4041      	eorgt	r1, r0
 8000b84:	bfb8      	it	lt
 8000b86:	425b      	neglt	r3, r3
 8000b88:	2b19      	cmp	r3, #25
 8000b8a:	bf88      	it	hi
 8000b8c:	4770      	bxhi	lr
 8000b8e:	f010 4f00 	tst.w	r0, #2147483648	; 0x80000000
 8000b92:	f440 0000 	orr.w	r0, r0, #8388608	; 0x800000
 8000b96:	f020 407f 	bic.w	r0, r0, #4278190080	; 0xff000000
 8000b9a:	bf18      	it	ne
 8000b9c:	4240      	negne	r0, r0
 8000b9e:	f011 4f00 	tst.w	r1, #2147483648	; 0x80000000
 8000ba2:	f441 0100 	orr.w	r1, r1, #8388608	; 0x800000
 8000ba6:	f021 417f 	bic.w	r1, r1, #4278190080	; 0xff000000
 8000baa:	bf18      	it	ne
 8000bac:	4249      	negne	r1, r1
 8000bae:	ea92 0f03 	teq	r2, r3
 8000bb2:	d03f      	beq.n	8000c34 <__addsf3+0xd8>
 8000bb4:	f1a2 0201 	sub.w	r2, r2, #1
 8000bb8:	fa41 fc03 	asr.w	ip, r1, r3
 8000bbc:	eb10 000c 	adds.w	r0, r0, ip
 8000bc0:	f1c3 0320 	rsb	r3, r3, #32
 8000bc4:	fa01 f103 	lsl.w	r1, r1, r3
 8000bc8:	f000 4300 	and.w	r3, r0, #2147483648	; 0x80000000
 8000bcc:	d502      	bpl.n	8000bd4 <__addsf3+0x78>
 8000bce:	4249      	negs	r1, r1
 8000bd0:	eb60 0040 	sbc.w	r0, r0, r0, lsl #1
 8000bd4:	f5b0 0f00 	cmp.w	r0, #8388608	; 0x800000
 8000bd8:	d313      	bcc.n	8000c02 <__addsf3+0xa6>
 8000bda:	f1b0 7f80 	cmp.w	r0, #16777216	; 0x1000000
 8000bde:	d306      	bcc.n	8000bee <__addsf3+0x92>
 8000be0:	0840      	lsrs	r0, r0, #1
 8000be2:	ea4f 0131 	mov.w	r1, r1, rrx
 8000be6:	f102 0201 	add.w	r2, r2, #1
 8000bea:	2afe      	cmp	r2, #254	; 0xfe
 8000bec:	d251      	bcs.n	8000c92 <__addsf3+0x136>
 8000bee:	f1b1 4f00 	cmp.w	r1, #2147483648	; 0x80000000
 8000bf2:	eb40 50c2 	adc.w	r0, r0, r2, lsl #23
 8000bf6:	bf08      	it	eq
 8000bf8:	f020 0001 	biceq.w	r0, r0, #1
 8000bfc:	ea40 0003 	orr.w	r0, r0, r3
 8000c00:	4770      	bx	lr
 8000c02:	0049      	lsls	r1, r1, #1
 8000c04:	eb40 0000 	adc.w	r0, r0, r0
 8000c08:	f410 0f00 	tst.w	r0, #8388608	; 0x800000
 8000c0c:	f1a2 0201 	sub.w	r2, r2, #1
 8000c10:	d1ed      	bne.n	8000bee <__addsf3+0x92>
 8000c12:	fab0 fc80 	clz	ip, r0
 8000c16:	f1ac 0c08 	sub.w	ip, ip, #8
 8000c1a:	ebb2 020c 	subs.w	r2, r2, ip
 8000c1e:	fa00 f00c 	lsl.w	r0, r0, ip
 8000c22:	bfaa      	itet	ge
 8000c24:	eb00 50c2 	addge.w	r0, r0, r2, lsl #23
 8000c28:	4252      	neglt	r2, r2
 8000c2a:	4318      	orrge	r0, r3
 8000c2c:	bfbc      	itt	lt
 8000c2e:	40d0      	lsrlt	r0, r2
 8000c30:	4318      	orrlt	r0, r3
 8000c32:	4770      	bx	lr
 8000c34:	f092 0f00 	teq	r2, #0
 8000c38:	f481 0100 	eor.w	r1, r1, #8388608	; 0x800000
 8000c3c:	bf06      	itte	eq
 8000c3e:	f480 0000 	eoreq.w	r0, r0, #8388608	; 0x800000
 8000c42:	3201      	addeq	r2, #1
 8000c44:	3b01      	subne	r3, #1
 8000c46:	e7b5      	b.n	8000bb4 <__addsf3+0x58>
 8000c48:	ea4f 0341 	mov.w	r3, r1, lsl #1
 8000c4c:	ea7f 6c22 	mvns.w	ip, r2, asr #24
 8000c50:	bf18      	it	ne
 8000c52:	ea7f 6c23 	mvnsne.w	ip, r3, asr #24
 8000c56:	d021      	beq.n	8000c9c <__addsf3+0x140>
 8000c58:	ea92 0f03 	teq	r2, r3
 8000c5c:	d004      	beq.n	8000c68 <__addsf3+0x10c>
 8000c5e:	f092 0f00 	teq	r2, #0
 8000c62:	bf08      	it	eq
 8000c64:	4608      	moveq	r0, r1
 8000c66:	4770      	bx	lr
 8000c68:	ea90 0f01 	teq	r0, r1
 8000c6c:	bf1c      	itt	ne
 8000c6e:	2000      	movne	r0, #0
 8000c70:	4770      	bxne	lr
 8000c72:	f012 4f7f 	tst.w	r2, #4278190080	; 0xff000000
 8000c76:	d104      	bne.n	8000c82 <__addsf3+0x126>
 8000c78:	0040      	lsls	r0, r0, #1
 8000c7a:	bf28      	it	cs
 8000c7c:	f040 4000 	orrcs.w	r0, r0, #2147483648	; 0x80000000
 8000c80:	4770      	bx	lr
 8000c82:	f112 7200 	adds.w	r2, r2, #33554432	; 0x2000000
 8000c86:	bf3c      	itt	cc
 8000c88:	f500 0000 	addcc.w	r0, r0, #8388608	; 0x800000
 8000c8c:	4770      	bxcc	lr
 8000c8e:	f000 4300 	and.w	r3, r0, #2147483648	; 0x80000000
 8000c92:	f043 40fe 	orr.w	r0, r3, #2130706432	; 0x7f000000
 8000c96:	f440 0000 	orr.w	r0, r0, #8388608	; 0x800000
 8000c9a:	4770      	bx	lr
 8000c9c:	ea7f 6222 	mvns.w	r2, r2, asr #24
 8000ca0:	bf16      	itet	ne
 8000ca2:	4608      	movne	r0, r1
 8000ca4:	ea7f 6323 	mvnseq.w	r3, r3, asr #24
 8000ca8:	4601      	movne	r1, r0
 8000caa:	0242      	lsls	r2, r0, #9
 8000cac:	bf06      	itte	eq
 8000cae:	ea5f 2341 	movseq.w	r3, r1, lsl #9
 8000cb2:	ea90 0f01 	teqeq	r0, r1
 8000cb6:	f440 0080 	orrne.w	r0, r0, #4194304	; 0x400000
 8000cba:	4770      	bx	lr

08000cbc <__aeabi_ui2f>:
 8000cbc:	f04f 0300 	mov.w	r3, #0
 8000cc0:	e004      	b.n	8000ccc <__aeabi_i2f+0x8>
 8000cc2:	bf00      	nop

08000cc4 <__aeabi_i2f>:
 8000cc4:	f010 4300 	ands.w	r3, r0, #2147483648	; 0x80000000
 8000cc8:	bf48      	it	mi
 8000cca:	4240      	negmi	r0, r0
 8000ccc:	ea5f 0c00 	movs.w	ip, r0
 8000cd0:	bf08      	it	eq
 8000cd2:	4770      	bxeq	lr
 8000cd4:	f043 4396 	orr.w	r3, r3, #1258291200	; 0x4b000000
 8000cd8:	4601      	mov	r1, r0
 8000cda:	f04f 0000 	mov.w	r0, #0
 8000cde:	e01c      	b.n	8000d1a <__aeabi_l2f+0x2a>

08000ce0 <__aeabi_ul2f>:
 8000ce0:	ea50 0201 	orrs.w	r2, r0, r1
 8000ce4:	bf08      	it	eq
 8000ce6:	4770      	bxeq	lr
 8000ce8:	f04f 0300 	mov.w	r3, #0
 8000cec:	e00a      	b.n	8000d04 <__aeabi_l2f+0x14>
 8000cee:	bf00      	nop

08000cf0 <__aeabi_l2f>:
 8000cf0:	ea50 0201 	orrs.w	r2, r0, r1
 8000cf4:	bf08      	it	eq
 8000cf6:	4770      	bxeq	lr
 8000cf8:	f011 4300 	ands.w	r3, r1, #2147483648	; 0x80000000
 8000cfc:	d502      	bpl.n	8000d04 <__aeabi_l2f+0x14>
 8000cfe:	4240      	negs	r0, r0
 8000d00:	eb61 0141 	sbc.w	r1, r1, r1, lsl #1
 8000d04:	ea5f 0c01 	movs.w	ip, r1
 8000d08:	bf02      	ittt	eq
 8000d0a:	4684      	moveq	ip, r0
 8000d0c:	4601      	moveq	r1, r0
 8000d0e:	2000      	moveq	r0, #0
 8000d10:	f043 43b6 	orr.w	r3, r3, #1526726656	; 0x5b000000
 8000d14:	bf08      	it	eq
 8000d16:	f1a3 5380 	subeq.w	r3, r3, #268435456	; 0x10000000
 8000d1a:	f5a3 0300 	sub.w	r3, r3, #8388608	; 0x800000
 8000d1e:	fabc f28c 	clz	r2, ip
 8000d22:	3a08      	subs	r2, #8
 8000d24:	eba3 53c2 	sub.w	r3, r3, r2, lsl #23
 8000d28:	db10      	blt.n	8000d4c <__aeabi_l2f+0x5c>
 8000d2a:	fa01 fc02 	lsl.w	ip, r1, r2
 8000d2e:	4463      	add	r3, ip
 8000d30:	fa00 fc02 	lsl.w	ip, r0, r2
 8000d34:	f1c2 0220 	rsb	r2, r2, #32
 8000d38:	f1bc 4f00 	cmp.w	ip, #2147483648	; 0x80000000
 8000d3c:	fa20 f202 	lsr.w	r2, r0, r2
 8000d40:	eb43 0002 	adc.w	r0, r3, r2
 8000d44:	bf08      	it	eq
 8000d46:	f020 0001 	biceq.w	r0, r0, #1
 8000d4a:	4770      	bx	lr
 8000d4c:	f102 0220 	add.w	r2, r2, #32
 8000d50:	fa01 fc02 	lsl.w	ip, r1, r2
 8000d54:	f1c2 0220 	rsb	r2, r2, #32
 8000d58:	ea50 004c 	orrs.w	r0, r0, ip, lsl #1
 8000d5c:	fa21 f202 	lsr.w	r2, r1, r2
 8000d60:	eb43 0002 	adc.w	r0, r3, r2
 8000d64:	bf08      	it	eq
 8000d66:	ea20 70dc 	biceq.w	r0, r0, ip, lsr #31
 8000d6a:	4770      	bx	lr

08000d6c <__aeabi_fmul>:
 8000d6c:	f04f 0cff 	mov.w	ip, #255	; 0xff
 8000d70:	ea1c 52d0 	ands.w	r2, ip, r0, lsr #23
 8000d74:	bf1e      	ittt	ne
 8000d76:	ea1c 53d1 	andsne.w	r3, ip, r1, lsr #23
 8000d7a:	ea92 0f0c 	teqne	r2, ip
 8000d7e:	ea93 0f0c 	teqne	r3, ip
 8000d82:	d06f      	beq.n	8000e64 <__aeabi_fmul+0xf8>
 8000d84:	441a      	add	r2, r3
 8000d86:	ea80 0c01 	eor.w	ip, r0, r1
 8000d8a:	0240      	lsls	r0, r0, #9
 8000d8c:	bf18      	it	ne
 8000d8e:	ea5f 2141 	movsne.w	r1, r1, lsl #9
 8000d92:	d01e      	beq.n	8000dd2 <__aeabi_fmul+0x66>
 8000d94:	f04f 6300 	mov.w	r3, #134217728	; 0x8000000
 8000d98:	ea43 1050 	orr.w	r0, r3, r0, lsr #5
 8000d9c:	ea43 1151 	orr.w	r1, r3, r1, lsr #5
 8000da0:	fba0 3101 	umull	r3, r1, r0, r1
 8000da4:	f00c 4000 	and.w	r0, ip, #2147483648	; 0x80000000
 8000da8:	f5b1 0f00 	cmp.w	r1, #8388608	; 0x800000
 8000dac:	bf3e      	ittt	cc
 8000dae:	0049      	lslcc	r1, r1, #1
 8000db0:	ea41 71d3 	orrcc.w	r1, r1, r3, lsr #31
 8000db4:	005b      	lslcc	r3, r3, #1
 8000db6:	ea40 0001 	orr.w	r0, r0, r1
 8000dba:	f162 027f 	sbc.w	r2, r2, #127	; 0x7f
 8000dbe:	2afd      	cmp	r2, #253	; 0xfd
 8000dc0:	d81d      	bhi.n	8000dfe <__aeabi_fmul+0x92>
 8000dc2:	f1b3 4f00 	cmp.w	r3, #2147483648	; 0x80000000
 8000dc6:	eb40 50c2 	adc.w	r0, r0, r2, lsl #23
 8000dca:	bf08      	it	eq
 8000dcc:	f020 0001 	biceq.w	r0, r0, #1
 8000dd0:	4770      	bx	lr
 8000dd2:	f090 0f00 	teq	r0, #0
 8000dd6:	f00c 4c00 	and.w	ip, ip, #2147483648	; 0x80000000
 8000dda:	bf08      	it	eq
 8000ddc:	0249      	lsleq	r1, r1, #9
 8000dde:	ea4c 2050 	orr.w	r0, ip, r0, lsr #9
 8000de2:	ea40 2051 	orr.w	r0, r0, r1, lsr #9
 8000de6:	3a7f      	subs	r2, #127	; 0x7f
 8000de8:	bfc2      	ittt	gt
 8000dea:	f1d2 03ff 	rsbsgt	r3, r2, #255	; 0xff
 8000dee:	ea40 50c2 	orrgt.w	r0, r0, r2, lsl #23
 8000df2:	4770      	bxgt	lr
 8000df4:	f440 0000 	orr.w	r0, r0, #8388608	; 0x800000
 8000df8:	f04f 0300 	mov.w	r3, #0
 8000dfc:	3a01      	subs	r2, #1
 8000dfe:	dc5d      	bgt.n	8000ebc <__aeabi_fmul+0x150>
 8000e00:	f112 0f19 	cmn.w	r2, #25
 8000e04:	bfdc      	itt	le
 8000e06:	f000 4000 	andle.w	r0, r0, #2147483648	; 0x80000000
 8000e0a:	4770      	bxle	lr
 8000e0c:	f1c2 0200 	rsb	r2, r2, #0
 8000e10:	0041      	lsls	r1, r0, #1
 8000e12:	fa21 f102 	lsr.w	r1, r1, r2
 8000e16:	f1c2 0220 	rsb	r2, r2, #32
 8000e1a:	fa00 fc02 	lsl.w	ip, r0, r2
 8000e1e:	ea5f 0031 	movs.w	r0, r1, rrx
 8000e22:	f140 0000 	adc.w	r0, r0, #0
 8000e26:	ea53 034c 	orrs.w	r3, r3, ip, lsl #1
 8000e2a:	bf08      	it	eq
 8000e2c:	ea20 70dc 	biceq.w	r0, r0, ip, lsr #31
 8000e30:	4770      	bx	lr
 8000e32:	f092 0f00 	teq	r2, #0
 8000e36:	f000 4c00 	and.w	ip, r0, #2147483648	; 0x80000000
 8000e3a:	bf02      	ittt	eq
 8000e3c:	0040      	lsleq	r0, r0, #1
 8000e3e:	f410 0f00 	tsteq.w	r0, #8388608	; 0x800000
 8000e42:	3a01      	subeq	r2, #1
 8000e44:	d0f9      	beq.n	8000e3a <__aeabi_fmul+0xce>
 8000e46:	ea40 000c 	orr.w	r0, r0, ip
 8000e4a:	f093 0f00 	teq	r3, #0
 8000e4e:	f001 4c00 	and.w	ip, r1, #2147483648	; 0x80000000
 8000e52:	bf02      	ittt	eq
 8000e54:	0049      	lsleq	r1, r1, #1
 8000e56:	f411 0f00 	tsteq.w	r1, #8388608	; 0x800000
 8000e5a:	3b01      	subeq	r3, #1
 8000e5c:	d0f9      	beq.n	8000e52 <__aeabi_fmul+0xe6>
 8000e5e:	ea41 010c 	orr.w	r1, r1, ip
 8000e62:	e78f      	b.n	8000d84 <__aeabi_fmul+0x18>
 8000e64:	ea0c 53d1 	and.w	r3, ip, r1, lsr #23
 8000e68:	ea92 0f0c 	teq	r2, ip
 8000e6c:	bf18      	it	ne
 8000e6e:	ea93 0f0c 	teqne	r3, ip
 8000e72:	d00a      	beq.n	8000e8a <__aeabi_fmul+0x11e>
 8000e74:	f030 4c00 	bics.w	ip, r0, #2147483648	; 0x80000000
 8000e78:	bf18      	it	ne
 8000e7a:	f031 4c00 	bicsne.w	ip, r1, #2147483648	; 0x80000000
 8000e7e:	d1d8      	bne.n	8000e32 <__aeabi_fmul+0xc6>
 8000e80:	ea80 0001 	eor.w	r0, r0, r1
 8000e84:	f000 4000 	and.w	r0, r0, #2147483648	; 0x80000000
 8000e88:	4770      	bx	lr
 8000e8a:	f090 0f00 	teq	r0, #0
 8000e8e:	bf17      	itett	ne
 8000e90:	f090 4f00 	teqne	r0, #2147483648	; 0x80000000
 8000e94:	4608      	moveq	r0, r1
 8000e96:	f091 0f00 	teqne	r1, #0
 8000e9a:	f091 4f00 	teqne	r1, #2147483648	; 0x80000000
 8000e9e:	d014      	beq.n	8000eca <__aeabi_fmul+0x15e>
 8000ea0:	ea92 0f0c 	teq	r2, ip
 8000ea4:	d101      	bne.n	8000eaa <__aeabi_fmul+0x13e>
 8000ea6:	0242      	lsls	r2, r0, #9
 8000ea8:	d10f      	bne.n	8000eca <__aeabi_fmul+0x15e>
 8000eaa:	ea93 0f0c 	teq	r3, ip
 8000eae:	d103      	bne.n	8000eb8 <__aeabi_fmul+0x14c>
 8000eb0:	024b      	lsls	r3, r1, #9
 8000eb2:	bf18      	it	ne
 8000eb4:	4608      	movne	r0, r1
 8000eb6:	d108      	bne.n	8000eca <__aeabi_fmul+0x15e>
 8000eb8:	ea80 0001 	eor.w	r0, r0, r1
 8000ebc:	f000 4000 	and.w	r0, r0, #2147483648	; 0x80000000
 8000ec0:	f040 40fe 	orr.w	r0, r0, #2130706432	; 0x7f000000
 8000ec4:	f440 0000 	orr.w	r0, r0, #8388608	; 0x800000
 8000ec8:	4770      	bx	lr
 8000eca:	f040 40fe 	orr.w	r0, r0, #2130706432	; 0x7f000000
 8000ece:	f440 0040 	orr.w	r0, r0, #12582912	; 0xc00000
 8000ed2:	4770      	bx	lr

08000ed4 <__aeabi_fdiv>:
 8000ed4:	f04f 0cff 	mov.w	ip, #255	; 0xff
 8000ed8:	ea1c 52d0 	ands.w	r2, ip, r0, lsr #23
 8000edc:	bf1e      	ittt	ne
 8000ede:	ea1c 53d1 	andsne.w	r3, ip, r1, lsr #23
 8000ee2:	ea92 0f0c 	teqne	r2, ip
 8000ee6:	ea93 0f0c 	teqne	r3, ip
 8000eea:	d069      	beq.n	8000fc0 <__aeabi_fdiv+0xec>
 8000eec:	eba2 0203 	sub.w	r2, r2, r3
 8000ef0:	ea80 0c01 	eor.w	ip, r0, r1
 8000ef4:	0249      	lsls	r1, r1, #9
 8000ef6:	ea4f 2040 	mov.w	r0, r0, lsl #9
 8000efa:	d037      	beq.n	8000f6c <__aeabi_fdiv+0x98>
 8000efc:	f04f 5380 	mov.w	r3, #268435456	; 0x10000000
 8000f00:	ea43 1111 	orr.w	r1, r3, r1, lsr #4
 8000f04:	ea43 1310 	orr.w	r3, r3, r0, lsr #4
 8000f08:	f00c 4000 	and.w	r0, ip, #2147483648	; 0x80000000
 8000f0c:	428b      	cmp	r3, r1
 8000f0e:	bf38      	it	cc
 8000f10:	005b      	lslcc	r3, r3, #1
 8000f12:	f142 027d 	adc.w	r2, r2, #125	; 0x7d
 8000f16:	f44f 0c00 	mov.w	ip, #8388608	; 0x800000
 8000f1a:	428b      	cmp	r3, r1
 8000f1c:	bf24      	itt	cs
 8000f1e:	1a5b      	subcs	r3, r3, r1
 8000f20:	ea40 000c 	orrcs.w	r0, r0, ip
 8000f24:	ebb3 0f51 	cmp.w	r3, r1, lsr #1
 8000f28:	bf24      	itt	cs
 8000f2a:	eba3 0351 	subcs.w	r3, r3, r1, lsr #1
 8000f2e:	ea40 005c 	orrcs.w	r0, r0, ip, lsr #1
 8000f32:	ebb3 0f91 	cmp.w	r3, r1, lsr #2
 8000f36:	bf24      	itt	cs
 8000f38:	eba3 0391 	subcs.w	r3, r3, r1, lsr #2
 8000f3c:	ea40 009c 	orrcs.w	r0, r0, ip, lsr #2
 8000f40:	ebb3 0fd1 	cmp.w	r3, r1, lsr #3
 8000f44:	bf24      	itt	cs
 8000f46:	eba3 03d1 	subcs.w	r3, r3, r1, lsr #3
 8000f4a:	ea40 00dc 	orrcs.w	r0, r0, ip, lsr #3
 8000f4e:	011b      	lsls	r3, r3, #4
 8000f50:	bf18      	it	ne
 8000f52:	ea5f 1c1c 	movsne.w	ip, ip, lsr #4
 8000f56:	d1e0      	bne.n	8000f1a <__aeabi_fdiv+0x46>
 8000f58:	2afd      	cmp	r2, #253	; 0xfd
 8000f5a:	f63f af50 	bhi.w	8000dfe <__aeabi_fmul+0x92>
 8000f5e:	428b      	cmp	r3, r1
 8000f60:	eb40 50c2 	adc.w	r0, r0, r2, lsl #23
 8000f64:	bf08      	it	eq
 8000f66:	f020 0001 	biceq.w	r0, r0, #1
 8000f6a:	4770      	bx	lr
 8000f6c:	f00c 4c00 	and.w	ip, ip, #2147483648	; 0x80000000
 8000f70:	ea4c 2050 	orr.w	r0, ip, r0, lsr #9
 8000f74:	327f      	adds	r2, #127	; 0x7f
 8000f76:	bfc2      	ittt	gt
 8000f78:	f1d2 03ff 	rsbsgt	r3, r2, #255	; 0xff
 8000f7c:	ea40 50c2 	orrgt.w	r0, r0, r2, lsl #23
 8000f80:	4770      	bxgt	lr
 8000f82:	f440 0000 	orr.w	r0, r0, #8388608	; 0x800000
 8000f86:	f04f 0300 	mov.w	r3, #0
 8000f8a:	3a01      	subs	r2, #1
 8000f8c:	e737      	b.n	8000dfe <__aeabi_fmul+0x92>
 8000f8e:	f092 0f00 	teq	r2, #0
 8000f92:	f000 4c00 	and.w	ip, r0, #2147483648	; 0x80000000
 8000f96:	bf02      	ittt	eq
 8000f98:	0040      	lsleq	r0, r0, #1
 8000f9a:	f410 0f00 	tsteq.w	r0, #8388608	; 0x800000
 8000f9e:	3a01      	subeq	r2, #1
 8000fa0:	d0f9      	beq.n	8000f96 <__aeabi_fdiv+0xc2>
 8000fa2:	ea40 000c 	orr.w	r0, r0, ip
 8000fa6:	f093 0f00 	teq	r3, #0
 8000faa:	f001 4c00 	and.w	ip, r1, #2147483648	; 0x80000000
 8000fae:	bf02      	ittt	eq
 8000fb0:	0049      	lsleq	r1, r1, #1
 8000fb2:	f411 0f00 	tsteq.w	r1, #8388608	; 0x800000
 8000fb6:	3b01      	subeq	r3, #1
 8000fb8:	d0f9      	beq.n	8000fae <__aeabi_fdiv+0xda>
 8000fba:	ea41 010c 	orr.w	r1, r1, ip
 8000fbe:	e795      	b.n	8000eec <__aeabi_fdiv+0x18>
 8000fc0:	ea0c 53d1 	and.w	r3, ip, r1, lsr #23
 8000fc4:	ea92 0f0c 	teq	r2, ip
 8000fc8:	d108      	bne.n	8000fdc <__aeabi_fdiv+0x108>
 8000fca:	0242      	lsls	r2, r0, #9
 8000fcc:	f47f af7d 	bne.w	8000eca <__aeabi_fmul+0x15e>
 8000fd0:	ea93 0f0c 	teq	r3, ip
 8000fd4:	f47f af70 	bne.w	8000eb8 <__aeabi_fmul+0x14c>
 8000fd8:	4608      	mov	r0, r1
 8000fda:	e776      	b.n	8000eca <__aeabi_fmul+0x15e>
 8000fdc:	ea93 0f0c 	teq	r3, ip
 8000fe0:	d104      	bne.n	8000fec <__aeabi_fdiv+0x118>
 8000fe2:	024b      	lsls	r3, r1, #9
 8000fe4:	f43f af4c 	beq.w	8000e80 <__aeabi_fmul+0x114>
 8000fe8:	4608      	mov	r0, r1
 8000fea:	e76e      	b.n	8000eca <__aeabi_fmul+0x15e>
 8000fec:	f030 4c00 	bics.w	ip, r0, #2147483648	; 0x80000000
 8000ff0:	bf18      	it	ne
 8000ff2:	f031 4c00 	bicsne.w	ip, r1, #2147483648	; 0x80000000
 8000ff6:	d1ca      	bne.n	8000f8e <__aeabi_fdiv+0xba>
 8000ff8:	f030 4200 	bics.w	r2, r0, #2147483648	; 0x80000000
 8000ffc:	f47f af5c 	bne.w	8000eb8 <__aeabi_fmul+0x14c>
 8001000:	f031 4300 	bics.w	r3, r1, #2147483648	; 0x80000000
 8001004:	f47f af3c 	bne.w	8000e80 <__aeabi_fmul+0x114>
 8001008:	e75f      	b.n	8000eca <__aeabi_fmul+0x15e>
 800100a:	bf00      	nop

0800100c <__aeabi_f2uiz>:
 800100c:	0042      	lsls	r2, r0, #1
 800100e:	d20e      	bcs.n	800102e <__aeabi_f2uiz+0x22>
 8001010:	f1b2 4ffe 	cmp.w	r2, #2130706432	; 0x7f000000
 8001014:	d30b      	bcc.n	800102e <__aeabi_f2uiz+0x22>
 8001016:	f04f 039e 	mov.w	r3, #158	; 0x9e
 800101a:	ebb3 6212 	subs.w	r2, r3, r2, lsr #24
 800101e:	d409      	bmi.n	8001034 <__aeabi_f2uiz+0x28>
 8001020:	ea4f 2300 	mov.w	r3, r0, lsl #8
 8001024:	f043 4300 	orr.w	r3, r3, #2147483648	; 0x80000000
 8001028:	fa23 f002 	lsr.w	r0, r3, r2
 800102c:	4770      	bx	lr
 800102e:	f04f 0000 	mov.w	r0, #0
 8001032:	4770      	bx	lr
 8001034:	f112 0f61 	cmn.w	r2, #97	; 0x61
 8001038:	d101      	bne.n	800103e <__aeabi_f2uiz+0x32>
 800103a:	0242      	lsls	r2, r0, #9
 800103c:	d102      	bne.n	8001044 <__aeabi_f2uiz+0x38>
 800103e:	f04f 30ff 	mov.w	r0, #4294967295
 8001042:	4770      	bx	lr
 8001044:	f04f 0000 	mov.w	r0, #0
 8001048:	4770      	bx	lr
 800104a:	bf00      	nop

0800104c <__aeabi_uldivmod>:
 800104c:	b953      	cbnz	r3, 8001064 <__aeabi_uldivmod+0x18>
 800104e:	b94a      	cbnz	r2, 8001064 <__aeabi_uldivmod+0x18>
 8001050:	2900      	cmp	r1, #0
 8001052:	bf08      	it	eq
 8001054:	2800      	cmpeq	r0, #0
 8001056:	bf1c      	itt	ne
 8001058:	f04f 31ff 	movne.w	r1, #4294967295
 800105c:	f04f 30ff 	movne.w	r0, #4294967295
 8001060:	f000 b97a 	b.w	8001358 <__aeabi_idiv0>
 8001064:	f1ad 0c08 	sub.w	ip, sp, #8
 8001068:	e96d ce04 	strd	ip, lr, [sp, #-16]!
 800106c:	f000 f806 	bl	800107c <__udivmoddi4>
 8001070:	f8dd e004 	ldr.w	lr, [sp, #4]
 8001074:	e9dd 2302 	ldrd	r2, r3, [sp, #8]
 8001078:	b004      	add	sp, #16
 800107a:	4770      	bx	lr

0800107c <__udivmoddi4>:
 800107c:	e92d 47f0 	stmdb	sp!, {r4, r5, r6, r7, r8, r9, sl, lr}
 8001080:	468c      	mov	ip, r1
 8001082:	460e      	mov	r6, r1
 8001084:	4604      	mov	r4, r0
 8001086:	9d08      	ldr	r5, [sp, #32]
 8001088:	2b00      	cmp	r3, #0
 800108a:	d150      	bne.n	800112e <__udivmoddi4+0xb2>
 800108c:	428a      	cmp	r2, r1
 800108e:	4617      	mov	r7, r2
 8001090:	d96c      	bls.n	800116c <__udivmoddi4+0xf0>
 8001092:	fab2 fe82 	clz	lr, r2
 8001096:	f1be 0f00 	cmp.w	lr, #0
 800109a:	d00b      	beq.n	80010b4 <__udivmoddi4+0x38>
 800109c:	f1ce 0c20 	rsb	ip, lr, #32
 80010a0:	fa01 f60e 	lsl.w	r6, r1, lr
 80010a4:	fa20 fc0c 	lsr.w	ip, r0, ip
 80010a8:	fa02 f70e 	lsl.w	r7, r2, lr
 80010ac:	ea4c 0c06 	orr.w	ip, ip, r6
 80010b0:	fa00 f40e 	lsl.w	r4, r0, lr
 80010b4:	0c3a      	lsrs	r2, r7, #16
 80010b6:	fbbc f9f2 	udiv	r9, ip, r2
 80010ba:	b2bb      	uxth	r3, r7
 80010bc:	fb02 cc19 	mls	ip, r2, r9, ip
 80010c0:	fb09 fa03 	mul.w	sl, r9, r3
 80010c4:	ea4f 4814 	mov.w	r8, r4, lsr #16
 80010c8:	ea48 460c 	orr.w	r6, r8, ip, lsl #16
 80010cc:	45b2      	cmp	sl, r6
 80010ce:	d90a      	bls.n	80010e6 <__udivmoddi4+0x6a>
 80010d0:	19f6      	adds	r6, r6, r7
 80010d2:	f109 31ff 	add.w	r1, r9, #4294967295
 80010d6:	f080 8125 	bcs.w	8001324 <__udivmoddi4+0x2a8>
 80010da:	45b2      	cmp	sl, r6
 80010dc:	f240 8122 	bls.w	8001324 <__udivmoddi4+0x2a8>
 80010e0:	f1a9 0902 	sub.w	r9, r9, #2
 80010e4:	443e      	add	r6, r7
 80010e6:	eba6 060a 	sub.w	r6, r6, sl
 80010ea:	fbb6 f0f2 	udiv	r0, r6, r2
 80010ee:	fb02 6610 	mls	r6, r2, r0, r6
 80010f2:	fb00 f303 	mul.w	r3, r0, r3
 80010f6:	b2a4      	uxth	r4, r4
 80010f8:	ea44 4406 	orr.w	r4, r4, r6, lsl #16
 80010fc:	42a3      	cmp	r3, r4
 80010fe:	d909      	bls.n	8001114 <__udivmoddi4+0x98>
 8001100:	19e4      	adds	r4, r4, r7
 8001102:	f100 32ff 	add.w	r2, r0, #4294967295
 8001106:	f080 810b 	bcs.w	8001320 <__udivmoddi4+0x2a4>
 800110a:	42a3      	cmp	r3, r4
 800110c:	f240 8108 	bls.w	8001320 <__udivmoddi4+0x2a4>
 8001110:	3802      	subs	r0, #2
 8001112:	443c      	add	r4, r7
 8001114:	2100      	movs	r1, #0
 8001116:	1ae4      	subs	r4, r4, r3
 8001118:	ea40 4009 	orr.w	r0, r0, r9, lsl #16
 800111c:	2d00      	cmp	r5, #0
 800111e:	d062      	beq.n	80011e6 <__udivmoddi4+0x16a>
 8001120:	2300      	movs	r3, #0
 8001122:	fa24 f40e 	lsr.w	r4, r4, lr
 8001126:	602c      	str	r4, [r5, #0]
 8001128:	606b      	str	r3, [r5, #4]
 800112a:	e8bd 87f0 	ldmia.w	sp!, {r4, r5, r6, r7, r8, r9, sl, pc}
 800112e:	428b      	cmp	r3, r1
 8001130:	d907      	bls.n	8001142 <__udivmoddi4+0xc6>
 8001132:	2d00      	cmp	r5, #0
 8001134:	d055      	beq.n	80011e2 <__udivmoddi4+0x166>
 8001136:	2100      	movs	r1, #0
 8001138:	e885 0041 	stmia.w	r5, {r0, r6}
 800113c:	4608      	mov	r0, r1
 800113e:	e8bd 87f0 	ldmia.w	sp!, {r4, r5, r6, r7, r8, r9, sl, pc}
 8001142:	fab3 f183 	clz	r1, r3
 8001146:	2900      	cmp	r1, #0
 8001148:	f040 808f 	bne.w	800126a <__udivmoddi4+0x1ee>
 800114c:	42b3      	cmp	r3, r6
 800114e:	d302      	bcc.n	8001156 <__udivmoddi4+0xda>
 8001150:	4282      	cmp	r2, r0
 8001152:	f200 80fc 	bhi.w	800134e <__udivmoddi4+0x2d2>
 8001156:	1a84      	subs	r4, r0, r2
 8001158:	eb66 0603 	sbc.w	r6, r6, r3
 800115c:	2001      	movs	r0, #1
 800115e:	46b4      	mov	ip, r6
 8001160:	2d00      	cmp	r5, #0
 8001162:	d040      	beq.n	80011e6 <__udivmoddi4+0x16a>
 8001164:	e885 1010 	stmia.w	r5, {r4, ip}
 8001168:	e8bd 87f0 	ldmia.w	sp!, {r4, r5, r6, r7, r8, r9, sl, pc}
 800116c:	b912      	cbnz	r2, 8001174 <__udivmoddi4+0xf8>
 800116e:	2701      	movs	r7, #1
 8001170:	fbb7 f7f2 	udiv	r7, r7, r2
 8001174:	fab7 fe87 	clz	lr, r7
 8001178:	f1be 0f00 	cmp.w	lr, #0
 800117c:	d135      	bne.n	80011ea <__udivmoddi4+0x16e>
 800117e:	2101      	movs	r1, #1
 8001180:	1bf6      	subs	r6, r6, r7
 8001182:	ea4f 4c17 	mov.w	ip, r7, lsr #16
 8001186:	fa1f f887 	uxth.w	r8, r7
 800118a:	fbb6 f2fc 	udiv	r2, r6, ip
 800118e:	fb0c 6612 	mls	r6, ip, r2, r6
 8001192:	fb08 f002 	mul.w	r0, r8, r2
 8001196:	0c23      	lsrs	r3, r4, #16
 8001198:	ea43 4606 	orr.w	r6, r3, r6, lsl #16
 800119c:	42b0      	cmp	r0, r6
 800119e:	d907      	bls.n	80011b0 <__udivmoddi4+0x134>
 80011a0:	19f6      	adds	r6, r6, r7
 80011a2:	f102 33ff 	add.w	r3, r2, #4294967295
 80011a6:	d202      	bcs.n	80011ae <__udivmoddi4+0x132>
 80011a8:	42b0      	cmp	r0, r6
 80011aa:	f200 80d2 	bhi.w	8001352 <__udivmoddi4+0x2d6>
 80011ae:	461a      	mov	r2, r3
 80011b0:	1a36      	subs	r6, r6, r0
 80011b2:	fbb6 f0fc 	udiv	r0, r6, ip
 80011b6:	fb0c 6610 	mls	r6, ip, r0, r6
 80011ba:	fb08 f800 	mul.w	r8, r8, r0
 80011be:	b2a3      	uxth	r3, r4
 80011c0:	ea43 4406 	orr.w	r4, r3, r6, lsl #16
 80011c4:	45a0      	cmp	r8, r4
 80011c6:	d907      	bls.n	80011d8 <__udivmoddi4+0x15c>
 80011c8:	19e4      	adds	r4, r4, r7
 80011ca:	f100 33ff 	add.w	r3, r0, #4294967295
 80011ce:	d202      	bcs.n	80011d6 <__udivmoddi4+0x15a>
 80011d0:	45a0      	cmp	r8, r4
 80011d2:	f200 80b9 	bhi.w	8001348 <__udivmoddi4+0x2cc>
 80011d6:	4618      	mov	r0, r3
 80011d8:	eba4 0408 	sub.w	r4, r4, r8
 80011dc:	ea40 4002 	orr.w	r0, r0, r2, lsl #16
 80011e0:	e79c      	b.n	800111c <__udivmoddi4+0xa0>
 80011e2:	4629      	mov	r1, r5
 80011e4:	4628      	mov	r0, r5
 80011e6:	e8bd 87f0 	ldmia.w	sp!, {r4, r5, r6, r7, r8, r9, sl, pc}
 80011ea:	fa07 f70e 	lsl.w	r7, r7, lr
 80011ee:	f1ce 0320 	rsb	r3, lr, #32
 80011f2:	fa26 f203 	lsr.w	r2, r6, r3
 80011f6:	ea4f 4c17 	mov.w	ip, r7, lsr #16
 80011fa:	fbb2 f1fc 	udiv	r1, r2, ip
 80011fe:	fa1f f887 	uxth.w	r8, r7
 8001202:	fb0c 2211 	mls	r2, ip, r1, r2
 8001206:	fa06 f60e 	lsl.w	r6, r6, lr
 800120a:	fa20 f303 	lsr.w	r3, r0, r3
 800120e:	fb01 f908 	mul.w	r9, r1, r8
 8001212:	4333      	orrs	r3, r6
 8001214:	0c1e      	lsrs	r6, r3, #16
 8001216:	ea46 4602 	orr.w	r6, r6, r2, lsl #16
 800121a:	45b1      	cmp	r9, r6
 800121c:	fa00 f40e 	lsl.w	r4, r0, lr
 8001220:	d909      	bls.n	8001236 <__udivmoddi4+0x1ba>
 8001222:	19f6      	adds	r6, r6, r7
 8001224:	f101 32ff 	add.w	r2, r1, #4294967295
 8001228:	f080 808c 	bcs.w	8001344 <__udivmoddi4+0x2c8>
 800122c:	45b1      	cmp	r9, r6
 800122e:	f240 8089 	bls.w	8001344 <__udivmoddi4+0x2c8>
 8001232:	3902      	subs	r1, #2
 8001234:	443e      	add	r6, r7
 8001236:	eba6 0609 	sub.w	r6, r6, r9
 800123a:	fbb6 f0fc 	udiv	r0, r6, ip
 800123e:	fb0c 6210 	mls	r2, ip, r0, r6
 8001242:	fb00 f908 	mul.w	r9, r0, r8
 8001246:	b29e      	uxth	r6, r3
 8001248:	ea46 4602 	orr.w	r6, r6, r2, lsl #16
 800124c:	45b1      	cmp	r9, r6
 800124e:	d907      	bls.n	8001260 <__udivmoddi4+0x1e4>
 8001250:	19f6      	adds	r6, r6, r7
 8001252:	f100 33ff 	add.w	r3, r0, #4294967295
 8001256:	d271      	bcs.n	800133c <__udivmoddi4+0x2c0>
 8001258:	45b1      	cmp	r9, r6
 800125a:	d96f      	bls.n	800133c <__udivmoddi4+0x2c0>
 800125c:	3802      	subs	r0, #2
 800125e:	443e      	add	r6, r7
 8001260:	eba6 0609 	sub.w	r6, r6, r9
 8001264:	ea40 4101 	orr.w	r1, r0, r1, lsl #16
 8001268:	e78f      	b.n	800118a <__udivmoddi4+0x10e>
 800126a:	f1c1 0720 	rsb	r7, r1, #32
 800126e:	fa22 f807 	lsr.w	r8, r2, r7
 8001272:	408b      	lsls	r3, r1
 8001274:	ea48 0303 	orr.w	r3, r8, r3
 8001278:	fa26 f407 	lsr.w	r4, r6, r7
 800127c:	ea4f 4e13 	mov.w	lr, r3, lsr #16
 8001280:	fbb4 f9fe 	udiv	r9, r4, lr
 8001284:	fa1f fc83 	uxth.w	ip, r3
 8001288:	fb0e 4419 	mls	r4, lr, r9, r4
 800128c:	408e      	lsls	r6, r1
 800128e:	fa20 f807 	lsr.w	r8, r0, r7
 8001292:	fb09 fa0c 	mul.w	sl, r9, ip
 8001296:	ea48 0806 	orr.w	r8, r8, r6
 800129a:	ea4f 4618 	mov.w	r6, r8, lsr #16
 800129e:	ea46 4404 	orr.w	r4, r6, r4, lsl #16
 80012a2:	45a2      	cmp	sl, r4
 80012a4:	fa02 f201 	lsl.w	r2, r2, r1
 80012a8:	fa00 f601 	lsl.w	r6, r0, r1
 80012ac:	d908      	bls.n	80012c0 <__udivmoddi4+0x244>
 80012ae:	18e4      	adds	r4, r4, r3
 80012b0:	f109 30ff 	add.w	r0, r9, #4294967295
 80012b4:	d244      	bcs.n	8001340 <__udivmoddi4+0x2c4>
 80012b6:	45a2      	cmp	sl, r4
 80012b8:	d942      	bls.n	8001340 <__udivmoddi4+0x2c4>
 80012ba:	f1a9 0902 	sub.w	r9, r9, #2
 80012be:	441c      	add	r4, r3
 80012c0:	eba4 040a 	sub.w	r4, r4, sl
 80012c4:	fbb4 f0fe 	udiv	r0, r4, lr
 80012c8:	fb0e 4410 	mls	r4, lr, r0, r4
 80012cc:	fb00 fc0c 	mul.w	ip, r0, ip
 80012d0:	fa1f f888 	uxth.w	r8, r8
 80012d4:	ea48 4404 	orr.w	r4, r8, r4, lsl #16
 80012d8:	45a4      	cmp	ip, r4
 80012da:	d907      	bls.n	80012ec <__udivmoddi4+0x270>
 80012dc:	18e4      	adds	r4, r4, r3
 80012de:	f100 3eff 	add.w	lr, r0, #4294967295
 80012e2:	d229      	bcs.n	8001338 <__udivmoddi4+0x2bc>
 80012e4:	45a4      	cmp	ip, r4
 80012e6:	d927      	bls.n	8001338 <__udivmoddi4+0x2bc>
 80012e8:	3802      	subs	r0, #2
 80012ea:	441c      	add	r4, r3
 80012ec:	ea40 4009 	orr.w	r0, r0, r9, lsl #16
 80012f0:	fba0 8902 	umull	r8, r9, r0, r2
 80012f4:	eba4 0c0c 	sub.w	ip, r4, ip
 80012f8:	45cc      	cmp	ip, r9
 80012fa:	46c2      	mov	sl, r8
 80012fc:	46ce      	mov	lr, r9
 80012fe:	d315      	bcc.n	800132c <__udivmoddi4+0x2b0>
 8001300:	d012      	beq.n	8001328 <__udivmoddi4+0x2ac>
 8001302:	b155      	cbz	r5, 800131a <__udivmoddi4+0x29e>
 8001304:	ebb6 030a 	subs.w	r3, r6, sl
 8001308:	eb6c 060e 	sbc.w	r6, ip, lr
 800130c:	fa06 f707 	lsl.w	r7, r6, r7
 8001310:	40cb      	lsrs	r3, r1
 8001312:	431f      	orrs	r7, r3
 8001314:	40ce      	lsrs	r6, r1
 8001316:	602f      	str	r7, [r5, #0]
 8001318:	606e      	str	r6, [r5, #4]
 800131a:	2100      	movs	r1, #0
 800131c:	e8bd 87f0 	ldmia.w	sp!, {r4, r5, r6, r7, r8, r9, sl, pc}
 8001320:	4610      	mov	r0, r2
 8001322:	e6f7      	b.n	8001114 <__udivmoddi4+0x98>
 8001324:	4689      	mov	r9, r1
 8001326:	e6de      	b.n	80010e6 <__udivmoddi4+0x6a>
 8001328:	4546      	cmp	r6, r8
 800132a:	d2ea      	bcs.n	8001302 <__udivmoddi4+0x286>
 800132c:	ebb8 0a02 	subs.w	sl, r8, r2
 8001330:	eb69 0e03 	sbc.w	lr, r9, r3
 8001334:	3801      	subs	r0, #1
 8001336:	e7e4      	b.n	8001302 <__udivmoddi4+0x286>
 8001338:	4670      	mov	r0, lr
 800133a:	e7d7      	b.n	80012ec <__udivmoddi4+0x270>
 800133c:	4618      	mov	r0, r3
 800133e:	e78f      	b.n	8001260 <__udivmoddi4+0x1e4>
 8001340:	4681      	mov	r9, r0
 8001342:	e7bd      	b.n	80012c0 <__udivmoddi4+0x244>
 8001344:	4611      	mov	r1, r2
 8001346:	e776      	b.n	8001236 <__udivmoddi4+0x1ba>
 8001348:	3802      	subs	r0, #2
 800134a:	443c      	add	r4, r7
 800134c:	e744      	b.n	80011d8 <__udivmoddi4+0x15c>
 800134e:	4608      	mov	r0, r1
 8001350:	e706      	b.n	8001160 <__udivmoddi4+0xe4>
 8001352:	3a02      	subs	r2, #2
 8001354:	443e      	add	r6, r7
 8001356:	e72b      	b.n	80011b0 <__udivmoddi4+0x134>

08001358 <__aeabi_idiv0>:
 8001358:	4770      	bx	lr
 800135a:	bf00      	nop

0800135c <ADC_init>:
#include "stm32l1xx.h"
#include "adc.h"

// This function needs to be called before using sensors!
void ADC_init()
{
 800135c:	b480      	push	{r7}
 800135e:	af00      	add	r7, sp, #0
	RCC->APB2ENR |= RCC_APB2ENR_ADC1EN;
 8001360:	4a10      	ldr	r2, [pc, #64]	; (80013a4 <ADC_init+0x48>)
 8001362:	4b10      	ldr	r3, [pc, #64]	; (80013a4 <ADC_init+0x48>)
 8001364:	6a1b      	ldr	r3, [r3, #32]
 8001366:	f443 7300 	orr.w	r3, r3, #512	; 0x200
 800136a:	6213      	str	r3, [r2, #32]

	ADC1->CR2 &= ~ADC_CR2_CONT; // Single conversion mode
 800136c:	4a0e      	ldr	r2, [pc, #56]	; (80013a8 <ADC_init+0x4c>)
 800136e:	4b0e      	ldr	r3, [pc, #56]	; (80013a8 <ADC_init+0x4c>)
 8001370:	689b      	ldr	r3, [r3, #8]
 8001372:	f023 0302 	bic.w	r3, r3, #2
 8001376:	6093      	str	r3, [r2, #8]
	ADC1->SMPR3 |= ADC_SMPR3_SMP0; // 384 bit conversion rate
 8001378:	4a0b      	ldr	r2, [pc, #44]	; (80013a8 <ADC_init+0x4c>)
 800137a:	4b0b      	ldr	r3, [pc, #44]	; (80013a8 <ADC_init+0x4c>)
 800137c:	695b      	ldr	r3, [r3, #20]
 800137e:	f043 0307 	orr.w	r3, r3, #7
 8001382:	6153      	str	r3, [r2, #20]
	ADC1->CR1 &= ~ADC_CR1_RES; // 12-Bit Resolution
 8001384:	4a08      	ldr	r2, [pc, #32]	; (80013a8 <ADC_init+0x4c>)
 8001386:	4b08      	ldr	r3, [pc, #32]	; (80013a8 <ADC_init+0x4c>)
 8001388:	685b      	ldr	r3, [r3, #4]
 800138a:	f023 7340 	bic.w	r3, r3, #50331648	; 0x3000000
 800138e:	6053      	str	r3, [r2, #4]
	ADC1->SQR5 &= ~ADC_SQR5_SQ1; // Start at channel zero
 8001390:	4a05      	ldr	r2, [pc, #20]	; (80013a8 <ADC_init+0x4c>)
 8001392:	4b05      	ldr	r3, [pc, #20]	; (80013a8 <ADC_init+0x4c>)
 8001394:	6c1b      	ldr	r3, [r3, #64]	; 0x40
 8001396:	f023 031f 	bic.w	r3, r3, #31
 800139a:	6413      	str	r3, [r2, #64]	; 0x40
}
 800139c:	bf00      	nop
 800139e:	46bd      	mov	sp, r7
 80013a0:	bc80      	pop	{r7}
 80013a2:	4770      	bx	lr
 80013a4:	40023800 	.word	0x40023800
 80013a8:	40012400 	.word	0x40012400

080013ac <EXTI9_5_IRQHandler>:
 */

#include "exti_handlers.h"

void EXTI9_5_IRQHandler(void)
{
 80013ac:	b580      	push	{r7, lr}
 80013ae:	af00      	add	r7, sp, #0
	if (EXTI->PR & EXTI_PR_PR7)
 80013b0:	4b04      	ldr	r3, [pc, #16]	; (80013c4 <EXTI9_5_IRQHandler+0x18>)
 80013b2:	695b      	ldr	r3, [r3, #20]
 80013b4:	f003 0380 	and.w	r3, r3, #128	; 0x80
 80013b8:	2b00      	cmp	r3, #0
 80013ba:	d001      	beq.n	80013c0 <EXTI9_5_IRQHandler+0x14>
	{
        DHT22_IRQHandler();
 80013bc:	f000 fab6 	bl	800192c <DHT22_IRQHandler>
	}
}
 80013c0:	bf00      	nop
 80013c2:	bd80      	pop	{r7, pc}
 80013c4:	40010400 	.word	0x40010400

080013c8 <GPIO_init>:

#include "gpio.h"
#include "stm32l1xx.h"

void GPIO_init()
{
 80013c8:	b480      	push	{r7}
 80013ca:	af00      	add	r7, sp, #0
	  RCC->AHBENR|=1;
 80013cc:	4a07      	ldr	r2, [pc, #28]	; (80013ec <GPIO_init+0x24>)
 80013ce:	4b07      	ldr	r3, [pc, #28]	; (80013ec <GPIO_init+0x24>)
 80013d0:	69db      	ldr	r3, [r3, #28]
 80013d2:	f043 0301 	orr.w	r3, r3, #1
 80013d6:	61d3      	str	r3, [r2, #28]
	  GPIOA->MODER|=0x400;
 80013d8:	4a05      	ldr	r2, [pc, #20]	; (80013f0 <GPIO_init+0x28>)
 80013da:	4b05      	ldr	r3, [pc, #20]	; (80013f0 <GPIO_init+0x28>)
 80013dc:	681b      	ldr	r3, [r3, #0]
 80013de:	f443 6380 	orr.w	r3, r3, #1024	; 0x400
 80013e2:	6013      	str	r3, [r2, #0]
}
 80013e4:	bf00      	nop
 80013e6:	46bd      	mov	sp, r7
 80013e8:	bc80      	pop	{r7}
 80013ea:	4770      	bx	lr
 80013ec:	40023800 	.word	0x40023800
 80013f0:	40020000 	.word	0x40020000

080013f4 <TIM2_Init>:
 */

#include "timers.h"

void TIM2_Init(void)
{
 80013f4:	b480      	push	{r7}
 80013f6:	af00      	add	r7, sp, #0
    RCC->APB1ENR |= RCC_APB1ENR_TIM2EN;
 80013f8:	4a0d      	ldr	r2, [pc, #52]	; (8001430 <TIM2_Init+0x3c>)
 80013fa:	4b0d      	ldr	r3, [pc, #52]	; (8001430 <TIM2_Init+0x3c>)
 80013fc:	6a5b      	ldr	r3, [r3, #36]	; 0x24
 80013fe:	f043 0301 	orr.w	r3, r3, #1
 8001402:	6253      	str	r3, [r2, #36]	; 0x24
    TIM2->PSC = 32 - 1;
 8001404:	f04f 4380 	mov.w	r3, #1073741824	; 0x40000000
 8001408:	221f      	movs	r2, #31
 800140a:	629a      	str	r2, [r3, #40]	; 0x28
    TIM2->ARR = 0xFFFF;
 800140c:	f04f 4380 	mov.w	r3, #1073741824	; 0x40000000
 8001410:	f64f 72ff 	movw	r2, #65535	; 0xffff
 8001414:	62da      	str	r2, [r3, #44]	; 0x2c
    TIM2->CR1 |= TIM_CR1_CEN;
 8001416:	f04f 4280 	mov.w	r2, #1073741824	; 0x40000000
 800141a:	f04f 4380 	mov.w	r3, #1073741824	; 0x40000000
 800141e:	681b      	ldr	r3, [r3, #0]
 8001420:	f043 0301 	orr.w	r3, r3, #1
 8001424:	6013      	str	r3, [r2, #0]
}
 8001426:	bf00      	nop
 8001428:	46bd      	mov	sp, r7
 800142a:	bc80      	pop	{r7}
 800142c:	4770      	bx	lr
 800142e:	bf00      	nop
 8001430:	40023800 	.word	0x40023800

08001434 <USART2_init>:

#include "usart.h"
#include "stm32l1xx.h"

void USART2_init()
{
 8001434:	b480      	push	{r7}
 8001436:	af00      	add	r7, sp, #0
	RCC->APB1ENR|=0x00020000; 	//set bit 17 (USART2 EN)
 8001438:	4a1c      	ldr	r2, [pc, #112]	; (80014ac <USART2_init+0x78>)
 800143a:	4b1c      	ldr	r3, [pc, #112]	; (80014ac <USART2_init+0x78>)
 800143c:	6a5b      	ldr	r3, [r3, #36]	; 0x24
 800143e:	f443 3300 	orr.w	r3, r3, #131072	; 0x20000
 8001442:	6253      	str	r3, [r2, #36]	; 0x24
	RCC->AHBENR|=0x00000001; 	//enable GPIOA port clock bit 0 (GPIOA EN)
 8001444:	4a19      	ldr	r2, [pc, #100]	; (80014ac <USART2_init+0x78>)
 8001446:	4b19      	ldr	r3, [pc, #100]	; (80014ac <USART2_init+0x78>)
 8001448:	69db      	ldr	r3, [r3, #28]
 800144a:	f043 0301 	orr.w	r3, r3, #1
 800144e:	61d3      	str	r3, [r2, #28]
	GPIOA->AFR[0]=0x00000700;	//GPIOx_AFRL p.188,AF7 p.177
 8001450:	4b17      	ldr	r3, [pc, #92]	; (80014b0 <USART2_init+0x7c>)
 8001452:	f44f 62e0 	mov.w	r2, #1792	; 0x700
 8001456:	621a      	str	r2, [r3, #32]
	GPIOA->AFR[0]|=0x00007000;	//GPIOx_AFRL p.188,AF7 p.177
 8001458:	4a15      	ldr	r2, [pc, #84]	; (80014b0 <USART2_init+0x7c>)
 800145a:	4b15      	ldr	r3, [pc, #84]	; (80014b0 <USART2_init+0x7c>)
 800145c:	6a1b      	ldr	r3, [r3, #32]
 800145e:	f443 43e0 	orr.w	r3, r3, #28672	; 0x7000
 8001462:	6213      	str	r3, [r2, #32]
	GPIOA->MODER|=0x00000020; 	//MODER2=PA2(TX) to mode 10=alternate function mode. p184
 8001464:	4a12      	ldr	r2, [pc, #72]	; (80014b0 <USART2_init+0x7c>)
 8001466:	4b12      	ldr	r3, [pc, #72]	; (80014b0 <USART2_init+0x7c>)
 8001468:	681b      	ldr	r3, [r3, #0]
 800146a:	f043 0320 	orr.w	r3, r3, #32
 800146e:	6013      	str	r3, [r2, #0]
	GPIOA->MODER|=0x00000080; 	//MODER2=PA3(RX) to mode 10=alternate function mode. p184
 8001470:	4a0f      	ldr	r2, [pc, #60]	; (80014b0 <USART2_init+0x7c>)
 8001472:	4b0f      	ldr	r3, [pc, #60]	; (80014b0 <USART2_init+0x7c>)
 8001474:	681b      	ldr	r3, [r3, #0]
 8001476:	f043 0380 	orr.w	r3, r3, #128	; 0x80
 800147a:	6013      	str	r3, [r2, #0]

	USART2->BRR = 0x00000116;	//115200 BAUD and crystal 32MHz. p710, 116
 800147c:	4b0d      	ldr	r3, [pc, #52]	; (80014b4 <USART2_init+0x80>)
 800147e:	f44f 728b 	mov.w	r2, #278	; 0x116
 8001482:	609a      	str	r2, [r3, #8]
	USART2->CR1 = 0x00000008;	//TE bit. p739-740. Enable transmit
 8001484:	4b0b      	ldr	r3, [pc, #44]	; (80014b4 <USART2_init+0x80>)
 8001486:	2208      	movs	r2, #8
 8001488:	60da      	str	r2, [r3, #12]
	USART2->CR1 |= 0x00000004;	//RE bit. p739-740. Enable receiver
 800148a:	4a0a      	ldr	r2, [pc, #40]	; (80014b4 <USART2_init+0x80>)
 800148c:	4b09      	ldr	r3, [pc, #36]	; (80014b4 <USART2_init+0x80>)
 800148e:	68db      	ldr	r3, [r3, #12]
 8001490:	f043 0304 	orr.w	r3, r3, #4
 8001494:	60d3      	str	r3, [r2, #12]
	USART2->CR1 |= 0x00002000;	//UE bit. p739-740. Uart enable
 8001496:	4a07      	ldr	r2, [pc, #28]	; (80014b4 <USART2_init+0x80>)
 8001498:	4b06      	ldr	r3, [pc, #24]	; (80014b4 <USART2_init+0x80>)
 800149a:	68db      	ldr	r3, [r3, #12]
 800149c:	f443 5300 	orr.w	r3, r3, #8192	; 0x2000
 80014a0:	60d3      	str	r3, [r2, #12]
}
 80014a2:	bf00      	nop
 80014a4:	46bd      	mov	sp, r7
 80014a6:	bc80      	pop	{r7}
 80014a8:	4770      	bx	lr
 80014aa:	bf00      	nop
 80014ac:	40023800 	.word	0x40023800
 80014b0:	40020000 	.word	0x40020000
 80014b4:	40004400 	.word	0x40004400

080014b8 <USART2_write>:


void USART2_write(char data)
{
 80014b8:	b480      	push	{r7}
 80014ba:	b083      	sub	sp, #12
 80014bc:	af00      	add	r7, sp, #0
 80014be:	4603      	mov	r3, r0
 80014c0:	71fb      	strb	r3, [r7, #7]
	while(!(USART2->SR&0x0080)){} 	//TXE: Transmit data register empty. p736-737
 80014c2:	bf00      	nop
 80014c4:	4b06      	ldr	r3, [pc, #24]	; (80014e0 <USART2_write+0x28>)
 80014c6:	681b      	ldr	r3, [r3, #0]
 80014c8:	f003 0380 	and.w	r3, r3, #128	; 0x80
 80014cc:	2b00      	cmp	r3, #0
 80014ce:	d0f9      	beq.n	80014c4 <USART2_write+0xc>
		USART2->DR=(data);		//p739
 80014d0:	4a03      	ldr	r2, [pc, #12]	; (80014e0 <USART2_write+0x28>)
 80014d2:	79fb      	ldrb	r3, [r7, #7]
 80014d4:	6053      	str	r3, [r2, #4]
}
 80014d6:	bf00      	nop
 80014d8:	370c      	adds	r7, #12
 80014da:	46bd      	mov	sp, r7
 80014dc:	bc80      	pop	{r7}
 80014de:	4770      	bx	lr
 80014e0:	40004400 	.word	0x40004400

080014e4 <USART2_write_buffer>:

void USART2_write_buffer(char* buffer)
{
 80014e4:	b580      	push	{r7, lr}
 80014e6:	b082      	sub	sp, #8
 80014e8:	af00      	add	r7, sp, #0
 80014ea:	6078      	str	r0, [r7, #4]
	while(*(buffer) != '\0')
 80014ec:	e007      	b.n	80014fe <USART2_write_buffer+0x1a>
	{
		USART2_write(*buffer);
 80014ee:	687b      	ldr	r3, [r7, #4]
 80014f0:	781b      	ldrb	r3, [r3, #0]
 80014f2:	4618      	mov	r0, r3
 80014f4:	f7ff ffe0 	bl	80014b8 <USART2_write>
		buffer++;
 80014f8:	687b      	ldr	r3, [r7, #4]
 80014fa:	3301      	adds	r3, #1
 80014fc:	607b      	str	r3, [r7, #4]
	while(*(buffer) != '\0')
 80014fe:	687b      	ldr	r3, [r7, #4]
 8001500:	781b      	ldrb	r3, [r3, #0]
 8001502:	2b00      	cmp	r3, #0
 8001504:	d1f3      	bne.n	80014ee <USART2_write_buffer+0xa>
	}
	USART2_write('\r');
 8001506:	200d      	movs	r0, #13
 8001508:	f7ff ffd6 	bl	80014b8 <USART2_write>
	USART2_write('\n');
 800150c:	200a      	movs	r0, #10
 800150e:	f7ff ffd3 	bl	80014b8 <USART2_write>
}
 8001512:	bf00      	nop
 8001514:	3708      	adds	r7, #8
 8001516:	46bd      	mov	sp, r7
 8001518:	bd80      	pop	{r7, pc}
	...

0800151c <NVIC_EnableIRQ>:
  \brief   Enable External Interrupt
  \details Enables a device-specific interrupt in the NVIC interrupt controller.
  \param [in]      IRQn  External interrupt number. Value cannot be negative.
 */
__STATIC_INLINE void NVIC_EnableIRQ(IRQn_Type IRQn)
{
 800151c:	b480      	push	{r7}
 800151e:	b083      	sub	sp, #12
 8001520:	af00      	add	r7, sp, #0
 8001522:	4603      	mov	r3, r0
 8001524:	71fb      	strb	r3, [r7, #7]
  NVIC->ISER[(((uint32_t)(int32_t)IRQn) >> 5UL)] = (uint32_t)(1UL << (((uint32_t)(int32_t)IRQn) & 0x1FUL));
 8001526:	4908      	ldr	r1, [pc, #32]	; (8001548 <NVIC_EnableIRQ+0x2c>)
 8001528:	f997 3007 	ldrsb.w	r3, [r7, #7]
 800152c:	095b      	lsrs	r3, r3, #5
 800152e:	79fa      	ldrb	r2, [r7, #7]
 8001530:	f002 021f 	and.w	r2, r2, #31
 8001534:	2001      	movs	r0, #1
 8001536:	fa00 f202 	lsl.w	r2, r0, r2
 800153a:	f841 2023 	str.w	r2, [r1, r3, lsl #2]
}
 800153e:	bf00      	nop
 8001540:	370c      	adds	r7, #12
 8001542:	46bd      	mov	sp, r7
 8001544:	bc80      	pop	{r7}
 8001546:	4770      	bx	lr
 8001548:	e000e100 	.word	0xe000e100

0800154c <DHT22_SWITCH_MODE_OUTPUT>:
static volatile uint8_t pulses[BIT_COUNT];
static volatile uint8_t dht_status = 0;
static uint8_t skip_bits = 0;

void DHT22_SWITCH_MODE_OUTPUT()
{
 800154c:	b480      	push	{r7}
 800154e:	af00      	add	r7, sp, #0
	GPIOA->MODER &= ~GPIO_MODER_MODER7;
 8001550:	4a07      	ldr	r2, [pc, #28]	; (8001570 <DHT22_SWITCH_MODE_OUTPUT+0x24>)
 8001552:	4b07      	ldr	r3, [pc, #28]	; (8001570 <DHT22_SWITCH_MODE_OUTPUT+0x24>)
 8001554:	681b      	ldr	r3, [r3, #0]
 8001556:	f423 4340 	bic.w	r3, r3, #49152	; 0xc000
 800155a:	6013      	str	r3, [r2, #0]
	GPIOA->MODER |= GPIO_MODER_MODER7_0;
 800155c:	4a04      	ldr	r2, [pc, #16]	; (8001570 <DHT22_SWITCH_MODE_OUTPUT+0x24>)
 800155e:	4b04      	ldr	r3, [pc, #16]	; (8001570 <DHT22_SWITCH_MODE_OUTPUT+0x24>)
 8001560:	681b      	ldr	r3, [r3, #0]
 8001562:	f443 4380 	orr.w	r3, r3, #16384	; 0x4000
 8001566:	6013      	str	r3, [r2, #0]
}
 8001568:	bf00      	nop
 800156a:	46bd      	mov	sp, r7
 800156c:	bc80      	pop	{r7}
 800156e:	4770      	bx	lr
 8001570:	40020000 	.word	0x40020000

08001574 <DHT22_SWITCH_MODE_INPUT>:

void DHT22_SWITCH_MODE_INPUT()
{
 8001574:	b480      	push	{r7}
 8001576:	af00      	add	r7, sp, #0
	GPIOA->MODER &= ~GPIO_MODER_MODER7;
 8001578:	4a04      	ldr	r2, [pc, #16]	; (800158c <DHT22_SWITCH_MODE_INPUT+0x18>)
 800157a:	4b04      	ldr	r3, [pc, #16]	; (800158c <DHT22_SWITCH_MODE_INPUT+0x18>)
 800157c:	681b      	ldr	r3, [r3, #0]
 800157e:	f423 4340 	bic.w	r3, r3, #49152	; 0xc000
 8001582:	6013      	str	r3, [r2, #0]
}
 8001584:	bf00      	nop
 8001586:	46bd      	mov	sp, r7
 8001588:	bc80      	pop	{r7}
 800158a:	4770      	bx	lr
 800158c:	40020000 	.word	0x40020000

08001590 <DHT22_init>:

void DHT22_init()
{
 8001590:	b580      	push	{r7, lr}
 8001592:	af00      	add	r7, sp, #0
    RCC->APB2ENR |= RCC_APB2ENR_SYSCFGEN;
 8001594:	4a12      	ldr	r2, [pc, #72]	; (80015e0 <DHT22_init+0x50>)
 8001596:	4b12      	ldr	r3, [pc, #72]	; (80015e0 <DHT22_init+0x50>)
 8001598:	6a1b      	ldr	r3, [r3, #32]
 800159a:	f043 0301 	orr.w	r3, r3, #1
 800159e:	6213      	str	r3, [r2, #32]
    SYSCFG->EXTICR[1] &= ~SYSCFG_EXTICR2_EXTI7_PA;
 80015a0:	4a10      	ldr	r2, [pc, #64]	; (80015e4 <DHT22_init+0x54>)
 80015a2:	4b10      	ldr	r3, [pc, #64]	; (80015e4 <DHT22_init+0x54>)
 80015a4:	68db      	ldr	r3, [r3, #12]
 80015a6:	60d3      	str	r3, [r2, #12]
    SYSCFG->EXTICR[1] |= SYSCFG_EXTICR2_EXTI7_PA;
 80015a8:	4a0e      	ldr	r2, [pc, #56]	; (80015e4 <DHT22_init+0x54>)
 80015aa:	4b0e      	ldr	r3, [pc, #56]	; (80015e4 <DHT22_init+0x54>)
 80015ac:	68db      	ldr	r3, [r3, #12]
 80015ae:	60d3      	str	r3, [r2, #12]

    EXTI->IMR |= EXTI_IMR_MR7;
 80015b0:	4a0d      	ldr	r2, [pc, #52]	; (80015e8 <DHT22_init+0x58>)
 80015b2:	4b0d      	ldr	r3, [pc, #52]	; (80015e8 <DHT22_init+0x58>)
 80015b4:	681b      	ldr	r3, [r3, #0]
 80015b6:	f043 0380 	orr.w	r3, r3, #128	; 0x80
 80015ba:	6013      	str	r3, [r2, #0]
    EXTI->FTSR |= EXTI_FTSR_FT7;
 80015bc:	4a0a      	ldr	r2, [pc, #40]	; (80015e8 <DHT22_init+0x58>)
 80015be:	4b0a      	ldr	r3, [pc, #40]	; (80015e8 <DHT22_init+0x58>)
 80015c0:	68db      	ldr	r3, [r3, #12]
 80015c2:	f043 0380 	orr.w	r3, r3, #128	; 0x80
 80015c6:	60d3      	str	r3, [r2, #12]
    EXTI->RTSR |= EXTI_RTSR_RT7;
 80015c8:	4a07      	ldr	r2, [pc, #28]	; (80015e8 <DHT22_init+0x58>)
 80015ca:	4b07      	ldr	r3, [pc, #28]	; (80015e8 <DHT22_init+0x58>)
 80015cc:	689b      	ldr	r3, [r3, #8]
 80015ce:	f043 0380 	orr.w	r3, r3, #128	; 0x80
 80015d2:	6093      	str	r3, [r2, #8]

    NVIC_EnableIRQ(EXTI9_5_IRQn);
 80015d4:	2017      	movs	r0, #23
 80015d6:	f7ff ffa1 	bl	800151c <NVIC_EnableIRQ>
}
 80015da:	bf00      	nop
 80015dc:	bd80      	pop	{r7, pc}
 80015de:	bf00      	nop
 80015e0:	40023800 	.word	0x40023800
 80015e4:	40010000 	.word	0x40010000
 80015e8:	40010400 	.word	0x40010400

080015ec <DHT22_read>:

int DHT22_read(DHT22_Reading *reading)
{
 80015ec:	b580      	push	{r7, lr}
 80015ee:	b0a2      	sub	sp, #136	; 0x88
 80015f0:	af02      	add	r7, sp, #8
 80015f2:	6078      	str	r0, [r7, #4]
    uint8_t byte_list[5] = {0};
 80015f4:	f107 0370 	add.w	r3, r7, #112	; 0x70
 80015f8:	2200      	movs	r2, #0
 80015fa:	601a      	str	r2, [r3, #0]
 80015fc:	711a      	strb	r2, [r3, #4]
    uint8_t buffer[100];

    DHT22_start();
 80015fe:	f000 f8e1 	bl	80017c4 <DHT22_start>

    if (DHT22_wait_response())
 8001602:	f000 f903 	bl	800180c <DHT22_wait_response>
 8001606:	4603      	mov	r3, r0
 8001608:	2b00      	cmp	r3, #0
 800160a:	d004      	beq.n	8001616 <DHT22_read+0x2a>
    {
        USART2_write_buffer("DHT22 Not ready to send data!");
 800160c:	4864      	ldr	r0, [pc, #400]	; (80017a0 <DHT22_read+0x1b4>)
 800160e:	f7ff ff69 	bl	80014e4 <USART2_write_buffer>
        return DHT_ERROR;
 8001612:	2301      	movs	r3, #1
 8001614:	e0bf      	b.n	8001796 <DHT22_read+0x1aa>
    }

    SysTick->LOAD = TIMEOUT_20_MS - 1; // Set maximum allowable wait time
 8001616:	4b63      	ldr	r3, [pc, #396]	; (80017a4 <DHT22_read+0x1b8>)
 8001618:	4a63      	ldr	r2, [pc, #396]	; (80017a8 <DHT22_read+0x1bc>)
 800161a:	605a      	str	r2, [r3, #4]
	SysTick->VAL = 0;
 800161c:	4b61      	ldr	r3, [pc, #388]	; (80017a4 <DHT22_read+0x1b8>)
 800161e:	2200      	movs	r2, #0
 8001620:	609a      	str	r2, [r3, #8]
	SysTick->CTRL = 5;
 8001622:	4b60      	ldr	r3, [pc, #384]	; (80017a4 <DHT22_read+0x1b8>)
 8001624:	2205      	movs	r2, #5
 8001626:	601a      	str	r2, [r3, #0]

    // Wait for data
    while(dht_status == DHT_MEASURING)
 8001628:	e00a      	b.n	8001640 <DHT22_read+0x54>
    {
        if ((SysTick->CTRL) & 0x10000)
 800162a:	4b5e      	ldr	r3, [pc, #376]	; (80017a4 <DHT22_read+0x1b8>)
 800162c:	681b      	ldr	r3, [r3, #0]
 800162e:	f403 3380 	and.w	r3, r3, #65536	; 0x10000
 8001632:	2b00      	cmp	r3, #0
 8001634:	d004      	beq.n	8001640 <DHT22_read+0x54>
        {
    		USART2_write_buffer("DHT22 measurement error :/");
 8001636:	485d      	ldr	r0, [pc, #372]	; (80017ac <DHT22_read+0x1c0>)
 8001638:	f7ff ff54 	bl	80014e4 <USART2_write_buffer>
            return DHT_ERROR;
 800163c:	2301      	movs	r3, #1
 800163e:	e0aa      	b.n	8001796 <DHT22_read+0x1aa>
    while(dht_status == DHT_MEASURING)
 8001640:	4b5b      	ldr	r3, [pc, #364]	; (80017b0 <DHT22_read+0x1c4>)
 8001642:	781b      	ldrb	r3, [r3, #0]
 8001644:	b2db      	uxtb	r3, r3
 8001646:	2b03      	cmp	r3, #3
 8001648:	d0ef      	beq.n	800162a <DHT22_read+0x3e>
        }
    }

	SysTick->CTRL = 0;
 800164a:	4b56      	ldr	r3, [pc, #344]	; (80017a4 <DHT22_read+0x1b8>)
 800164c:	2200      	movs	r2, #0
 800164e:	601a      	str	r2, [r3, #0]

    if (dht_status == DHT_READY)
 8001650:	4b57      	ldr	r3, [pc, #348]	; (80017b0 <DHT22_read+0x1c4>)
 8001652:	781b      	ldrb	r3, [r3, #0]
 8001654:	b2db      	uxtb	r3, r3
 8001656:	2b00      	cmp	r3, #0
 8001658:	f040 809c 	bne.w	8001794 <DHT22_read+0x1a8>
    {
	    EXTI->IMR &= ~EXTI_IMR_MR7;
 800165c:	4a55      	ldr	r2, [pc, #340]	; (80017b4 <DHT22_read+0x1c8>)
 800165e:	4b55      	ldr	r3, [pc, #340]	; (80017b4 <DHT22_read+0x1c8>)
 8001660:	681b      	ldr	r3, [r3, #0]
 8001662:	f023 0380 	bic.w	r3, r3, #128	; 0x80
 8001666:	6013      	str	r3, [r2, #0]
    	dht_status = DHT_NOT_READY;
 8001668:	4b51      	ldr	r3, [pc, #324]	; (80017b0 <DHT22_read+0x1c4>)
 800166a:	2202      	movs	r2, #2
 800166c:	701a      	strb	r2, [r3, #0]

    	DHT22_decode_pulses(pulses, byte_list);
 800166e:	f107 0370 	add.w	r3, r7, #112	; 0x70
 8001672:	4619      	mov	r1, r3
 8001674:	4850      	ldr	r0, [pc, #320]	; (80017b8 <DHT22_read+0x1cc>)
 8001676:	f000 f919 	bl	80018ac <DHT22_decode_pulses>

		uint8_t humidity_int = byte_list[0];
 800167a:	f897 3070 	ldrb.w	r3, [r7, #112]	; 0x70
 800167e:	f887 307d 	strb.w	r3, [r7, #125]	; 0x7d
		uint8_t humidity_dec = byte_list[1];
 8001682:	f897 3071 	ldrb.w	r3, [r7, #113]	; 0x71
 8001686:	f887 307c 	strb.w	r3, [r7, #124]	; 0x7c
		uint8_t temperature_int = byte_list[2];
 800168a:	f897 3072 	ldrb.w	r3, [r7, #114]	; 0x72
 800168e:	f887 307b 	strb.w	r3, [r7, #123]	; 0x7b
		uint8_t temperature_dec = byte_list[3];
 8001692:	f897 3073 	ldrb.w	r3, [r7, #115]	; 0x73
 8001696:	f887 307a 	strb.w	r3, [r7, #122]	; 0x7a
		uint8_t checksum = byte_list[4];
 800169a:	f897 3074 	ldrb.w	r3, [r7, #116]	; 0x74
 800169e:	f887 3079 	strb.w	r3, [r7, #121]	; 0x79

		uint16_t humidity = (humidity_int << 8) | humidity_dec;
 80016a2:	f897 307d 	ldrb.w	r3, [r7, #125]	; 0x7d
 80016a6:	021b      	lsls	r3, r3, #8
 80016a8:	b21a      	sxth	r2, r3
 80016aa:	f897 307c 	ldrb.w	r3, [r7, #124]	; 0x7c
 80016ae:	b21b      	sxth	r3, r3
 80016b0:	4313      	orrs	r3, r2
 80016b2:	b21b      	sxth	r3, r3
 80016b4:	f8a7 3076 	strh.w	r3, [r7, #118]	; 0x76
		uint16_t temperature = (temperature_int << 8) | temperature_dec;
 80016b8:	f897 307b 	ldrb.w	r3, [r7, #123]	; 0x7b
 80016bc:	021b      	lsls	r3, r3, #8
 80016be:	b21a      	sxth	r2, r3
 80016c0:	f897 307a 	ldrb.w	r3, [r7, #122]	; 0x7a
 80016c4:	b21b      	sxth	r3, r3
 80016c6:	4313      	orrs	r3, r2
 80016c8:	b21b      	sxth	r3, r3
 80016ca:	f8a7 307e 	strh.w	r3, [r7, #126]	; 0x7e
	    if (temperature_int & 0x80) temperature = -temperature;
 80016ce:	f997 307b 	ldrsb.w	r3, [r7, #123]	; 0x7b
 80016d2:	2b00      	cmp	r3, #0
 80016d4:	da04      	bge.n	80016e0 <DHT22_read+0xf4>
 80016d6:	f8b7 307e 	ldrh.w	r3, [r7, #126]	; 0x7e
 80016da:	425b      	negs	r3, r3
 80016dc:	f8a7 307e 	strh.w	r3, [r7, #126]	; 0x7e

		uint8_t expected_checksum = humidity_int + humidity_dec + temperature_int + temperature_dec;
 80016e0:	f897 207d 	ldrb.w	r2, [r7, #125]	; 0x7d
 80016e4:	f897 307c 	ldrb.w	r3, [r7, #124]	; 0x7c
 80016e8:	4413      	add	r3, r2
 80016ea:	b2da      	uxtb	r2, r3
 80016ec:	f897 307b 	ldrb.w	r3, [r7, #123]	; 0x7b
 80016f0:	4413      	add	r3, r2
 80016f2:	b2da      	uxtb	r2, r3
 80016f4:	f897 307a 	ldrb.w	r3, [r7, #122]	; 0x7a
 80016f8:	4413      	add	r3, r2
 80016fa:	f887 3075 	strb.w	r3, [r7, #117]	; 0x75
		if (expected_checksum != checksum)
 80016fe:	f897 2075 	ldrb.w	r2, [r7, #117]	; 0x75
 8001702:	f897 3079 	ldrb.w	r3, [r7, #121]	; 0x79
 8001706:	429a      	cmp	r2, r3
 8001708:	d010      	beq.n	800172c <DHT22_read+0x140>
		{
			snprintf(buffer, 100, "Invalid checksum expected %.2X got %.2X", expected_checksum, checksum);
 800170a:	f897 2075 	ldrb.w	r2, [r7, #117]	; 0x75
 800170e:	f897 3079 	ldrb.w	r3, [r7, #121]	; 0x79
 8001712:	f107 000c 	add.w	r0, r7, #12
 8001716:	9300      	str	r3, [sp, #0]
 8001718:	4613      	mov	r3, r2
 800171a:	4a28      	ldr	r2, [pc, #160]	; (80017bc <DHT22_read+0x1d0>)
 800171c:	2164      	movs	r1, #100	; 0x64
 800171e:	f000 fd0b 	bl	8002138 <snprintf>
			USART2_write_buffer(buffer);
 8001722:	f107 030c 	add.w	r3, r7, #12
 8001726:	4618      	mov	r0, r3
 8001728:	f7ff fedc 	bl	80014e4 <USART2_write_buffer>
		}

		reading->humidity_int = humidity / 10;
 800172c:	f8b7 3076 	ldrh.w	r3, [r7, #118]	; 0x76
 8001730:	4a23      	ldr	r2, [pc, #140]	; (80017c0 <DHT22_read+0x1d4>)
 8001732:	fba2 2303 	umull	r2, r3, r2, r3
 8001736:	08db      	lsrs	r3, r3, #3
 8001738:	b29b      	uxth	r3, r3
 800173a:	b2da      	uxtb	r2, r3
 800173c:	687b      	ldr	r3, [r7, #4]
 800173e:	701a      	strb	r2, [r3, #0]
		reading->humidity_dec = humidity % 10;
 8001740:	f8b7 2076 	ldrh.w	r2, [r7, #118]	; 0x76
 8001744:	4b1e      	ldr	r3, [pc, #120]	; (80017c0 <DHT22_read+0x1d4>)
 8001746:	fba3 1302 	umull	r1, r3, r3, r2
 800174a:	08d9      	lsrs	r1, r3, #3
 800174c:	460b      	mov	r3, r1
 800174e:	009b      	lsls	r3, r3, #2
 8001750:	440b      	add	r3, r1
 8001752:	005b      	lsls	r3, r3, #1
 8001754:	1ad3      	subs	r3, r2, r3
 8001756:	b29b      	uxth	r3, r3
 8001758:	b2da      	uxtb	r2, r3
 800175a:	687b      	ldr	r3, [r7, #4]
 800175c:	705a      	strb	r2, [r3, #1]
		reading->temperature_int = temperature / 10;
 800175e:	f8b7 307e 	ldrh.w	r3, [r7, #126]	; 0x7e
 8001762:	4a17      	ldr	r2, [pc, #92]	; (80017c0 <DHT22_read+0x1d4>)
 8001764:	fba2 2303 	umull	r2, r3, r2, r3
 8001768:	08db      	lsrs	r3, r3, #3
 800176a:	b29b      	uxth	r3, r3
 800176c:	b2da      	uxtb	r2, r3
 800176e:	687b      	ldr	r3, [r7, #4]
 8001770:	709a      	strb	r2, [r3, #2]
		reading->temperature_dec = temperature % 10;
 8001772:	f8b7 207e 	ldrh.w	r2, [r7, #126]	; 0x7e
 8001776:	4b12      	ldr	r3, [pc, #72]	; (80017c0 <DHT22_read+0x1d4>)
 8001778:	fba3 1302 	umull	r1, r3, r3, r2
 800177c:	08d9      	lsrs	r1, r3, #3
 800177e:	460b      	mov	r3, r1
 8001780:	009b      	lsls	r3, r3, #2
 8001782:	440b      	add	r3, r1
 8001784:	005b      	lsls	r3, r3, #1
 8001786:	1ad3      	subs	r3, r2, r3
 8001788:	b29b      	uxth	r3, r3
 800178a:	b2da      	uxtb	r2, r3
 800178c:	687b      	ldr	r3, [r7, #4]
 800178e:	70da      	strb	r2, [r3, #3]

		return DHT_READY;
 8001790:	2300      	movs	r3, #0
 8001792:	e000      	b.n	8001796 <DHT22_read+0x1aa>
    }

    return DHT_ERROR;
 8001794:	2301      	movs	r3, #1
}
 8001796:	4618      	mov	r0, r3
 8001798:	3780      	adds	r7, #128	; 0x80
 800179a:	46bd      	mov	sp, r7
 800179c:	bd80      	pop	{r7, pc}
 800179e:	bf00      	nop
 80017a0:	08005358 	.word	0x08005358
 80017a4:	e000e010 	.word	0xe000e010
 80017a8:	0009c3ff 	.word	0x0009c3ff
 80017ac:	08005378 	.word	0x08005378
 80017b0:	200006bd 	.word	0x200006bd
 80017b4:	40010400 	.word	0x40010400
 80017b8:	20000694 	.word	0x20000694
 80017bc:	08005394 	.word	0x08005394
 80017c0:	cccccccd 	.word	0xcccccccd

080017c4 <DHT22_start>:

void DHT22_start()
{
 80017c4:	b580      	push	{r7, lr}
 80017c6:	af00      	add	r7, sp, #0
    EXTI->IMR &= ~EXTI_IMR_MR7;
 80017c8:	4a0e      	ldr	r2, [pc, #56]	; (8001804 <DHT22_start+0x40>)
 80017ca:	4b0e      	ldr	r3, [pc, #56]	; (8001804 <DHT22_start+0x40>)
 80017cc:	681b      	ldr	r3, [r3, #0]
 80017ce:	f023 0380 	bic.w	r3, r3, #128	; 0x80
 80017d2:	6013      	str	r3, [r2, #0]
    // MCU PULL LOW ~20ms
    DHT22_SWITCH_MODE_OUTPUT();
 80017d4:	f7ff feba 	bl	800154c <DHT22_SWITCH_MODE_OUTPUT>
    GPIOA->ODR &= ~GPIO_ODR_ODR_7;
 80017d8:	4a0b      	ldr	r2, [pc, #44]	; (8001808 <DHT22_start+0x44>)
 80017da:	4b0b      	ldr	r3, [pc, #44]	; (8001808 <DHT22_start+0x44>)
 80017dc:	695b      	ldr	r3, [r3, #20]
 80017de:	f023 0380 	bic.w	r3, r3, #128	; 0x80
 80017e2:	6153      	str	r3, [r2, #20]
    delay_ms(20);
 80017e4:	2014      	movs	r0, #20
 80017e6:	f000 fa45 	bl	8001c74 <delay_ms>

    // MCU RELEASE LINE 20-40us
    GPIOA->ODR |= GPIO_ODR_ODR_7;
 80017ea:	4a07      	ldr	r2, [pc, #28]	; (8001808 <DHT22_start+0x44>)
 80017ec:	4b06      	ldr	r3, [pc, #24]	; (8001808 <DHT22_start+0x44>)
 80017ee:	695b      	ldr	r3, [r3, #20]
 80017f0:	f043 0380 	orr.w	r3, r3, #128	; 0x80
 80017f4:	6153      	str	r3, [r2, #20]
    DHT22_SWITCH_MODE_INPUT();
 80017f6:	f7ff febd 	bl	8001574 <DHT22_SWITCH_MODE_INPUT>
	delay_us(20);
 80017fa:	2014      	movs	r0, #20
 80017fc:	f000 fa14 	bl	8001c28 <delay_us>
}
 8001800:	bf00      	nop
 8001802:	bd80      	pop	{r7, pc}
 8001804:	40010400 	.word	0x40010400
 8001808:	40020000 	.word	0x40020000

0800180c <DHT22_wait_response>:

int DHT22_wait_response()
{
 800180c:	b580      	push	{r7, lr}
 800180e:	af00      	add	r7, sp, #0
    SysTick->LOAD = TIMEOUT_90_US - 1; // Set maximum allowable wait time
 8001810:	4b21      	ldr	r3, [pc, #132]	; (8001898 <DHT22_wait_response+0x8c>)
 8001812:	f640 323f 	movw	r2, #2879	; 0xb3f
 8001816:	605a      	str	r2, [r3, #4]
	SysTick->VAL = 0;
 8001818:	4b1f      	ldr	r3, [pc, #124]	; (8001898 <DHT22_wait_response+0x8c>)
 800181a:	2200      	movs	r2, #0
 800181c:	609a      	str	r2, [r3, #8]
	SysTick->CTRL = 5;
 800181e:	4b1e      	ldr	r3, [pc, #120]	; (8001898 <DHT22_wait_response+0x8c>)
 8001820:	2205      	movs	r2, #5
 8001822:	601a      	str	r2, [r3, #0]

    while (!(GPIOA->IDR & GPIO_IDR_IDR_7))
 8001824:	e00a      	b.n	800183c <DHT22_wait_response+0x30>
    {
        if ((SysTick->CTRL) & 0x10000)
 8001826:	4b1c      	ldr	r3, [pc, #112]	; (8001898 <DHT22_wait_response+0x8c>)
 8001828:	681b      	ldr	r3, [r3, #0]
 800182a:	f403 3380 	and.w	r3, r3, #65536	; 0x10000
 800182e:	2b00      	cmp	r3, #0
 8001830:	d004      	beq.n	800183c <DHT22_wait_response+0x30>
        {
    		USART2_write_buffer("Timeout error when waiting for DHT22 response PULL LOW");
 8001832:	481a      	ldr	r0, [pc, #104]	; (800189c <DHT22_wait_response+0x90>)
 8001834:	f7ff fe56 	bl	80014e4 <USART2_write_buffer>
            return DHT_ERROR;
 8001838:	2301      	movs	r3, #1
 800183a:	e02b      	b.n	8001894 <DHT22_wait_response+0x88>
    while (!(GPIOA->IDR & GPIO_IDR_IDR_7))
 800183c:	4b18      	ldr	r3, [pc, #96]	; (80018a0 <DHT22_wait_response+0x94>)
 800183e:	691b      	ldr	r3, [r3, #16]
 8001840:	f003 0380 	and.w	r3, r3, #128	; 0x80
 8001844:	2b00      	cmp	r3, #0
 8001846:	d0ee      	beq.n	8001826 <DHT22_wait_response+0x1a>
        }
    }

    EXTI->IMR |= EXTI_IMR_MR7;
 8001848:	4a16      	ldr	r2, [pc, #88]	; (80018a4 <DHT22_wait_response+0x98>)
 800184a:	4b16      	ldr	r3, [pc, #88]	; (80018a4 <DHT22_wait_response+0x98>)
 800184c:	681b      	ldr	r3, [r3, #0]
 800184e:	f043 0380 	orr.w	r3, r3, #128	; 0x80
 8001852:	6013      	str	r3, [r2, #0]

    SysTick->LOAD = TIMEOUT_90_US - 1; // Set maximum allowable wait time 85s
 8001854:	4b10      	ldr	r3, [pc, #64]	; (8001898 <DHT22_wait_response+0x8c>)
 8001856:	f640 323f 	movw	r2, #2879	; 0xb3f
 800185a:	605a      	str	r2, [r3, #4]
	SysTick->VAL = 0;
 800185c:	4b0e      	ldr	r3, [pc, #56]	; (8001898 <DHT22_wait_response+0x8c>)
 800185e:	2200      	movs	r2, #0
 8001860:	609a      	str	r2, [r3, #8]
	SysTick->CTRL = 5;
 8001862:	4b0d      	ldr	r3, [pc, #52]	; (8001898 <DHT22_wait_response+0x8c>)
 8001864:	2205      	movs	r2, #5
 8001866:	601a      	str	r2, [r3, #0]
    while (GPIOA->IDR & GPIO_IDR_IDR_7)
 8001868:	e00a      	b.n	8001880 <DHT22_wait_response+0x74>
    {
        if ((SysTick->CTRL) & 0x10000)
 800186a:	4b0b      	ldr	r3, [pc, #44]	; (8001898 <DHT22_wait_response+0x8c>)
 800186c:	681b      	ldr	r3, [r3, #0]
 800186e:	f403 3380 	and.w	r3, r3, #65536	; 0x10000
 8001872:	2b00      	cmp	r3, #0
 8001874:	d004      	beq.n	8001880 <DHT22_wait_response+0x74>
        {
    		USART2_write_buffer("Timeout error when waiting for DHT22 response GET READY");
 8001876:	480c      	ldr	r0, [pc, #48]	; (80018a8 <DHT22_wait_response+0x9c>)
 8001878:	f7ff fe34 	bl	80014e4 <USART2_write_buffer>
            return DHT_ERROR;
 800187c:	2301      	movs	r3, #1
 800187e:	e009      	b.n	8001894 <DHT22_wait_response+0x88>
    while (GPIOA->IDR & GPIO_IDR_IDR_7)
 8001880:	4b07      	ldr	r3, [pc, #28]	; (80018a0 <DHT22_wait_response+0x94>)
 8001882:	691b      	ldr	r3, [r3, #16]
 8001884:	f003 0380 	and.w	r3, r3, #128	; 0x80
 8001888:	2b00      	cmp	r3, #0
 800188a:	d1ee      	bne.n	800186a <DHT22_wait_response+0x5e>
        }
    }

    SysTick->CTRL = 0;
 800188c:	4b02      	ldr	r3, [pc, #8]	; (8001898 <DHT22_wait_response+0x8c>)
 800188e:	2200      	movs	r2, #0
 8001890:	601a      	str	r2, [r3, #0]

    return 0;
 8001892:	2300      	movs	r3, #0
}
 8001894:	4618      	mov	r0, r3
 8001896:	bd80      	pop	{r7, pc}
 8001898:	e000e010 	.word	0xe000e010
 800189c:	080053bc 	.word	0x080053bc
 80018a0:	40020000 	.word	0x40020000
 80018a4:	40010400 	.word	0x40010400
 80018a8:	080053f4 	.word	0x080053f4

080018ac <DHT22_decode_pulses>:

void DHT22_decode_pulses(volatile uint8_t *pulses, uint8_t *byte_list)
{
 80018ac:	b480      	push	{r7}
 80018ae:	b085      	sub	sp, #20
 80018b0:	af00      	add	r7, sp, #0
 80018b2:	6078      	str	r0, [r7, #4]
 80018b4:	6039      	str	r1, [r7, #0]
    uint8_t current_byte = 0;
 80018b6:	2300      	movs	r3, #0
 80018b8:	73fb      	strb	r3, [r7, #15]

    for (int bit = 1; bit <= BIT_COUNT; bit++)
 80018ba:	2301      	movs	r3, #1
 80018bc:	60bb      	str	r3, [r7, #8]
 80018be:	e02c      	b.n	800191a <DHT22_decode_pulses+0x6e>
    {
        if (pulses[bit] > 20 && pulses[bit] < 32)
 80018c0:	68bb      	ldr	r3, [r7, #8]
 80018c2:	687a      	ldr	r2, [r7, #4]
 80018c4:	4413      	add	r3, r2
 80018c6:	781b      	ldrb	r3, [r3, #0]
 80018c8:	b2db      	uxtb	r3, r3
 80018ca:	2b14      	cmp	r3, #20
 80018cc:	d90a      	bls.n	80018e4 <DHT22_decode_pulses+0x38>
 80018ce:	68bb      	ldr	r3, [r7, #8]
 80018d0:	687a      	ldr	r2, [r7, #4]
 80018d2:	4413      	add	r3, r2
 80018d4:	781b      	ldrb	r3, [r3, #0]
 80018d6:	b2db      	uxtb	r3, r3
 80018d8:	2b1f      	cmp	r3, #31
 80018da:	d803      	bhi.n	80018e4 <DHT22_decode_pulses+0x38>
        {
            current_byte = (current_byte << 1) | 0;
 80018dc:	7bfb      	ldrb	r3, [r7, #15]
 80018de:	005b      	lsls	r3, r3, #1
 80018e0:	73fb      	strb	r3, [r7, #15]
 80018e2:	e006      	b.n	80018f2 <DHT22_decode_pulses+0x46>
        }
        else
        {
            current_byte = (current_byte << 1) | 1;
 80018e4:	7bfb      	ldrb	r3, [r7, #15]
 80018e6:	005b      	lsls	r3, r3, #1
 80018e8:	b25b      	sxtb	r3, r3
 80018ea:	f043 0301 	orr.w	r3, r3, #1
 80018ee:	b25b      	sxtb	r3, r3
 80018f0:	73fb      	strb	r3, [r7, #15]
        }

        if ((bit % 8) == 0)
 80018f2:	68bb      	ldr	r3, [r7, #8]
 80018f4:	f003 0307 	and.w	r3, r3, #7
 80018f8:	2b00      	cmp	r3, #0
 80018fa:	d10b      	bne.n	8001914 <DHT22_decode_pulses+0x68>
        {
            byte_list[(bit / 8) - 1] = current_byte;
 80018fc:	68bb      	ldr	r3, [r7, #8]
 80018fe:	2b00      	cmp	r3, #0
 8001900:	da00      	bge.n	8001904 <DHT22_decode_pulses+0x58>
 8001902:	3307      	adds	r3, #7
 8001904:	10db      	asrs	r3, r3, #3
 8001906:	3b01      	subs	r3, #1
 8001908:	683a      	ldr	r2, [r7, #0]
 800190a:	4413      	add	r3, r2
 800190c:	7bfa      	ldrb	r2, [r7, #15]
 800190e:	701a      	strb	r2, [r3, #0]
            current_byte = 0;
 8001910:	2300      	movs	r3, #0
 8001912:	73fb      	strb	r3, [r7, #15]
    for (int bit = 1; bit <= BIT_COUNT; bit++)
 8001914:	68bb      	ldr	r3, [r7, #8]
 8001916:	3301      	adds	r3, #1
 8001918:	60bb      	str	r3, [r7, #8]
 800191a:	68bb      	ldr	r3, [r7, #8]
 800191c:	2b29      	cmp	r3, #41	; 0x29
 800191e:	ddcf      	ble.n	80018c0 <DHT22_decode_pulses+0x14>
        }
    }
}
 8001920:	bf00      	nop
 8001922:	3714      	adds	r7, #20
 8001924:	46bd      	mov	sp, r7
 8001926:	bc80      	pop	{r7}
 8001928:	4770      	bx	lr
	...

0800192c <DHT22_IRQHandler>:


void DHT22_IRQHandler()
{
 800192c:	b480      	push	{r7}
 800192e:	b083      	sub	sp, #12
 8001930:	af00      	add	r7, sp, #0
	static uint8_t index = 0;
	static uint16_t last_time = 0;
	uint16_t now = TIM2->CNT;
 8001932:	f04f 4380 	mov.w	r3, #1073741824	; 0x40000000
 8001936:	6a5b      	ldr	r3, [r3, #36]	; 0x24
 8001938:	80fb      	strh	r3, [r7, #6]
	uint16_t pulse_width;

	dht_status = DHT_MEASURING;
 800193a:	4b25      	ldr	r3, [pc, #148]	; (80019d0 <DHT22_IRQHandler+0xa4>)
 800193c:	2203      	movs	r2, #3
 800193e:	701a      	strb	r2, [r3, #0]

	if (GPIOA->IDR & GPIO_IDR_IDR_7) // Rising edge
 8001940:	4b24      	ldr	r3, [pc, #144]	; (80019d4 <DHT22_IRQHandler+0xa8>)
 8001942:	691b      	ldr	r3, [r3, #16]
 8001944:	f003 0380 	and.w	r3, r3, #128	; 0x80
 8001948:	2b00      	cmp	r3, #0
 800194a:	d009      	beq.n	8001960 <DHT22_IRQHandler+0x34>
	{
		last_time = now;
 800194c:	4a22      	ldr	r2, [pc, #136]	; (80019d8 <DHT22_IRQHandler+0xac>)
 800194e:	88fb      	ldrh	r3, [r7, #6]
 8001950:	8013      	strh	r3, [r2, #0]
		GPIOA->ODR |= GPIO_ODR_ODR_5;
 8001952:	4a20      	ldr	r2, [pc, #128]	; (80019d4 <DHT22_IRQHandler+0xa8>)
 8001954:	4b1f      	ldr	r3, [pc, #124]	; (80019d4 <DHT22_IRQHandler+0xa8>)
 8001956:	695b      	ldr	r3, [r3, #20]
 8001958:	f043 0320 	orr.w	r3, r3, #32
 800195c:	6153      	str	r3, [r2, #20]
 800195e:	e025      	b.n	80019ac <DHT22_IRQHandler+0x80>
	}

	else // Falling edge
	{
		pulse_width = (now >= last_time) ? (now - last_time) : (0xFFFF - last_time + now);
 8001960:	4b1d      	ldr	r3, [pc, #116]	; (80019d8 <DHT22_IRQHandler+0xac>)
 8001962:	881b      	ldrh	r3, [r3, #0]
 8001964:	88fa      	ldrh	r2, [r7, #6]
 8001966:	429a      	cmp	r2, r3
 8001968:	d305      	bcc.n	8001976 <DHT22_IRQHandler+0x4a>
 800196a:	4b1b      	ldr	r3, [pc, #108]	; (80019d8 <DHT22_IRQHandler+0xac>)
 800196c:	881b      	ldrh	r3, [r3, #0]
 800196e:	88fa      	ldrh	r2, [r7, #6]
 8001970:	1ad3      	subs	r3, r2, r3
 8001972:	b29b      	uxth	r3, r3
 8001974:	e006      	b.n	8001984 <DHT22_IRQHandler+0x58>
 8001976:	4b18      	ldr	r3, [pc, #96]	; (80019d8 <DHT22_IRQHandler+0xac>)
 8001978:	881b      	ldrh	r3, [r3, #0]
 800197a:	88fa      	ldrh	r2, [r7, #6]
 800197c:	1ad3      	subs	r3, r2, r3
 800197e:	b29b      	uxth	r3, r3
 8001980:	3b01      	subs	r3, #1
 8001982:	b29b      	uxth	r3, r3
 8001984:	80bb      	strh	r3, [r7, #4]
		pulses[index] = pulse_width;
 8001986:	4b15      	ldr	r3, [pc, #84]	; (80019dc <DHT22_IRQHandler+0xb0>)
 8001988:	781b      	ldrb	r3, [r3, #0]
 800198a:	461a      	mov	r2, r3
 800198c:	88bb      	ldrh	r3, [r7, #4]
 800198e:	b2d9      	uxtb	r1, r3
 8001990:	4b13      	ldr	r3, [pc, #76]	; (80019e0 <DHT22_IRQHandler+0xb4>)
 8001992:	5499      	strb	r1, [r3, r2]
		index++;
 8001994:	4b11      	ldr	r3, [pc, #68]	; (80019dc <DHT22_IRQHandler+0xb0>)
 8001996:	781b      	ldrb	r3, [r3, #0]
 8001998:	3301      	adds	r3, #1
 800199a:	b2da      	uxtb	r2, r3
 800199c:	4b0f      	ldr	r3, [pc, #60]	; (80019dc <DHT22_IRQHandler+0xb0>)
 800199e:	701a      	strb	r2, [r3, #0]
		GPIOA->ODR &= ~GPIO_ODR_ODR_5;
 80019a0:	4a0c      	ldr	r2, [pc, #48]	; (80019d4 <DHT22_IRQHandler+0xa8>)
 80019a2:	4b0c      	ldr	r3, [pc, #48]	; (80019d4 <DHT22_IRQHandler+0xa8>)
 80019a4:	695b      	ldr	r3, [r3, #20]
 80019a6:	f023 0320 	bic.w	r3, r3, #32
 80019aa:	6153      	str	r3, [r2, #20]
	}

	if (index >= BIT_COUNT)
 80019ac:	4b0b      	ldr	r3, [pc, #44]	; (80019dc <DHT22_IRQHandler+0xb0>)
 80019ae:	781b      	ldrb	r3, [r3, #0]
 80019b0:	2b28      	cmp	r3, #40	; 0x28
 80019b2:	d905      	bls.n	80019c0 <DHT22_IRQHandler+0x94>
	{
		index = 0;
 80019b4:	4b09      	ldr	r3, [pc, #36]	; (80019dc <DHT22_IRQHandler+0xb0>)
 80019b6:	2200      	movs	r2, #0
 80019b8:	701a      	strb	r2, [r3, #0]
		dht_status = DHT_READY;
 80019ba:	4b05      	ldr	r3, [pc, #20]	; (80019d0 <DHT22_IRQHandler+0xa4>)
 80019bc:	2200      	movs	r2, #0
 80019be:	701a      	strb	r2, [r3, #0]
	}

	EXTI->PR = EXTI_PR_PR7;
 80019c0:	4b08      	ldr	r3, [pc, #32]	; (80019e4 <DHT22_IRQHandler+0xb8>)
 80019c2:	2280      	movs	r2, #128	; 0x80
 80019c4:	615a      	str	r2, [r3, #20]
}
 80019c6:	bf00      	nop
 80019c8:	370c      	adds	r7, #12
 80019ca:	46bd      	mov	sp, r7
 80019cc:	bc80      	pop	{r7}
 80019ce:	4770      	bx	lr
 80019d0:	200006bd 	.word	0x200006bd
 80019d4:	40020000 	.word	0x40020000
 80019d8:	200006be 	.word	0x200006be
 80019dc:	200006c0 	.word	0x200006c0
 80019e0:	20000694 	.word	0x20000694
 80019e4:	40010400 	.word	0x40010400

080019e8 <LMT84LP_init>:
#define T_MIN -50.0f
#define U_MIN 1.299f
#define U_MAX 0.183f

void LMT84LP_init()
{
 80019e8:	b480      	push	{r7}
 80019ea:	af00      	add	r7, sp, #0
	RCC->AHBENR |= RCC_AHBENR_GPIOAEN;
 80019ec:	4a07      	ldr	r2, [pc, #28]	; (8001a0c <LMT84LP_init+0x24>)
 80019ee:	4b07      	ldr	r3, [pc, #28]	; (8001a0c <LMT84LP_init+0x24>)
 80019f0:	69db      	ldr	r3, [r3, #28]
 80019f2:	f043 0301 	orr.w	r3, r3, #1
 80019f6:	61d3      	str	r3, [r2, #28]
	GPIOA->MODER |= GPIO_MODER_MODER0;
 80019f8:	4a05      	ldr	r2, [pc, #20]	; (8001a10 <LMT84LP_init+0x28>)
 80019fa:	4b05      	ldr	r3, [pc, #20]	; (8001a10 <LMT84LP_init+0x28>)
 80019fc:	681b      	ldr	r3, [r3, #0]
 80019fe:	f043 0303 	orr.w	r3, r3, #3
 8001a02:	6013      	str	r3, [r2, #0]
}
 8001a04:	bf00      	nop
 8001a06:	46bd      	mov	sp, r7
 8001a08:	bc80      	pop	{r7}
 8001a0a:	4770      	bx	lr
 8001a0c:	40023800 	.word	0x40023800
 8001a10:	40020000 	.word	0x40020000

08001a14 <LMT84LP_read>:

void LMT84LP_read(LMT84LP_Reading *reading)
{
 8001a14:	b580      	push	{r7, lr}
 8001a16:	b086      	sub	sp, #24
 8001a18:	af00      	add	r7, sp, #0
 8001a1a:	6078      	str	r0, [r7, #4]
	int adc_result = 0;
 8001a1c:	2300      	movs	r3, #0
 8001a1e:	617b      	str	r3, [r7, #20]

	ADC1->SQR5 |= 0; // Start at channel zero
 8001a20:	4a30      	ldr	r2, [pc, #192]	; (8001ae4 <LMT84LP_read+0xd0>)
 8001a22:	4b30      	ldr	r3, [pc, #192]	; (8001ae4 <LMT84LP_read+0xd0>)
 8001a24:	6c1b      	ldr	r3, [r3, #64]	; 0x40
 8001a26:	6413      	str	r3, [r2, #64]	; 0x40
	ADC1->CR2 |= ADC_CR2_ADON;
 8001a28:	4a2e      	ldr	r2, [pc, #184]	; (8001ae4 <LMT84LP_read+0xd0>)
 8001a2a:	4b2e      	ldr	r3, [pc, #184]	; (8001ae4 <LMT84LP_read+0xd0>)
 8001a2c:	689b      	ldr	r3, [r3, #8]
 8001a2e:	f043 0301 	orr.w	r3, r3, #1
 8001a32:	6093      	str	r3, [r2, #8]
	ADC1->CR2 |= ADC_CR2_SWSTART;
 8001a34:	4a2b      	ldr	r2, [pc, #172]	; (8001ae4 <LMT84LP_read+0xd0>)
 8001a36:	4b2b      	ldr	r3, [pc, #172]	; (8001ae4 <LMT84LP_read+0xd0>)
 8001a38:	689b      	ldr	r3, [r3, #8]
 8001a3a:	f043 4380 	orr.w	r3, r3, #1073741824	; 0x40000000
 8001a3e:	6093      	str	r3, [r2, #8]

	while(!(ADC1->SR & ADC_SR_EOC)){}
 8001a40:	bf00      	nop
 8001a42:	4b28      	ldr	r3, [pc, #160]	; (8001ae4 <LMT84LP_read+0xd0>)
 8001a44:	681b      	ldr	r3, [r3, #0]
 8001a46:	f003 0302 	and.w	r3, r3, #2
 8001a4a:	2b00      	cmp	r3, #0
 8001a4c:	d0f9      	beq.n	8001a42 <LMT84LP_read+0x2e>

	adc_result = ADC1->DR;
 8001a4e:	4b25      	ldr	r3, [pc, #148]	; (8001ae4 <LMT84LP_read+0xd0>)
 8001a50:	6d9b      	ldr	r3, [r3, #88]	; 0x58
 8001a52:	617b      	str	r3, [r7, #20]

	ADC1->CR2 &= ~ADC_CR2_ADON;
 8001a54:	4a23      	ldr	r2, [pc, #140]	; (8001ae4 <LMT84LP_read+0xd0>)
 8001a56:	4b23      	ldr	r3, [pc, #140]	; (8001ae4 <LMT84LP_read+0xd0>)
 8001a58:	689b      	ldr	r3, [r3, #8]
 8001a5a:	f023 0301 	bic.w	r3, r3, #1
 8001a5e:	6093      	str	r3, [r2, #8]

	float voltage = ADC_STEP_SIZE_U * adc_result;
 8001a60:	6978      	ldr	r0, [r7, #20]
 8001a62:	f7ff f92f 	bl	8000cc4 <__aeabi_i2f>
 8001a66:	4603      	mov	r3, r0
 8001a68:	491f      	ldr	r1, [pc, #124]	; (8001ae8 <LMT84LP_read+0xd4>)
 8001a6a:	4618      	mov	r0, r3
 8001a6c:	f7ff f97e 	bl	8000d6c <__aeabi_fmul>
 8001a70:	4603      	mov	r3, r0
 8001a72:	613b      	str	r3, [r7, #16]
	float temperature = ((voltage - U_MIN) / (U_MAX - U_MIN)) * (T_MAX - T_MIN) + T_MIN;
 8001a74:	491d      	ldr	r1, [pc, #116]	; (8001aec <LMT84LP_read+0xd8>)
 8001a76:	6938      	ldr	r0, [r7, #16]
 8001a78:	f7ff f86e 	bl	8000b58 <__aeabi_fsub>
 8001a7c:	4603      	mov	r3, r0
 8001a7e:	491c      	ldr	r1, [pc, #112]	; (8001af0 <LMT84LP_read+0xdc>)
 8001a80:	4618      	mov	r0, r3
 8001a82:	f7ff fa27 	bl	8000ed4 <__aeabi_fdiv>
 8001a86:	4603      	mov	r3, r0
 8001a88:	491a      	ldr	r1, [pc, #104]	; (8001af4 <LMT84LP_read+0xe0>)
 8001a8a:	4618      	mov	r0, r3
 8001a8c:	f7ff f96e 	bl	8000d6c <__aeabi_fmul>
 8001a90:	4603      	mov	r3, r0
 8001a92:	4919      	ldr	r1, [pc, #100]	; (8001af8 <LMT84LP_read+0xe4>)
 8001a94:	4618      	mov	r0, r3
 8001a96:	f7ff f85f 	bl	8000b58 <__aeabi_fsub>
 8001a9a:	4603      	mov	r3, r0
 8001a9c:	60fb      	str	r3, [r7, #12]

	// Does this work?
	reading->temperature_int = (uint8_t)temperature;
 8001a9e:	68f8      	ldr	r0, [r7, #12]
 8001aa0:	f7ff fab4 	bl	800100c <__aeabi_f2uiz>
 8001aa4:	4603      	mov	r3, r0
 8001aa6:	b2da      	uxtb	r2, r3
 8001aa8:	687b      	ldr	r3, [r7, #4]
 8001aaa:	701a      	strb	r2, [r3, #0]
	reading->temperature_dec = (uint8_t)((temperature - reading->temperature_int) * 100);
 8001aac:	687b      	ldr	r3, [r7, #4]
 8001aae:	781b      	ldrb	r3, [r3, #0]
 8001ab0:	4618      	mov	r0, r3
 8001ab2:	f7ff f907 	bl	8000cc4 <__aeabi_i2f>
 8001ab6:	4603      	mov	r3, r0
 8001ab8:	4619      	mov	r1, r3
 8001aba:	68f8      	ldr	r0, [r7, #12]
 8001abc:	f7ff f84c 	bl	8000b58 <__aeabi_fsub>
 8001ac0:	4603      	mov	r3, r0
 8001ac2:	490e      	ldr	r1, [pc, #56]	; (8001afc <LMT84LP_read+0xe8>)
 8001ac4:	4618      	mov	r0, r3
 8001ac6:	f7ff f951 	bl	8000d6c <__aeabi_fmul>
 8001aca:	4603      	mov	r3, r0
 8001acc:	4618      	mov	r0, r3
 8001ace:	f7ff fa9d 	bl	800100c <__aeabi_f2uiz>
 8001ad2:	4603      	mov	r3, r0
 8001ad4:	b2da      	uxtb	r2, r3
 8001ad6:	687b      	ldr	r3, [r7, #4]
 8001ad8:	705a      	strb	r2, [r3, #1]
}
 8001ada:	bf00      	nop
 8001adc:	3718      	adds	r7, #24
 8001ade:	46bd      	mov	sp, r7
 8001ae0:	bd80      	pop	{r7, pc}
 8001ae2:	bf00      	nop
 8001ae4:	40012400 	.word	0x40012400
 8001ae8:	3a533332 	.word	0x3a533332
 8001aec:	3fa645a2 	.word	0x3fa645a2
 8001af0:	bf8ed917 	.word	0xbf8ed917
 8001af4:	43480000 	.word	0x43480000
 8001af8:	42480000 	.word	0x42480000
 8001afc:	42c80000 	.word	0x42c80000

08001b00 <NSL19M51_init>:
#include <math.h>

// PIN PA1

void NSL19M51_init()
{
 8001b00:	b480      	push	{r7}
 8001b02:	af00      	add	r7, sp, #0
	RCC->AHBENR |= RCC_AHBENR_GPIOAEN;
 8001b04:	4a07      	ldr	r2, [pc, #28]	; (8001b24 <NSL19M51_init+0x24>)
 8001b06:	4b07      	ldr	r3, [pc, #28]	; (8001b24 <NSL19M51_init+0x24>)
 8001b08:	69db      	ldr	r3, [r3, #28]
 8001b0a:	f043 0301 	orr.w	r3, r3, #1
 8001b0e:	61d3      	str	r3, [r2, #28]
	GPIOA->MODER |= GPIO_MODER_MODER1;
 8001b10:	4a05      	ldr	r2, [pc, #20]	; (8001b28 <NSL19M51_init+0x28>)
 8001b12:	4b05      	ldr	r3, [pc, #20]	; (8001b28 <NSL19M51_init+0x28>)
 8001b14:	681b      	ldr	r3, [r3, #0]
 8001b16:	f043 030c 	orr.w	r3, r3, #12
 8001b1a:	6013      	str	r3, [r2, #0]
}
 8001b1c:	bf00      	nop
 8001b1e:	46bd      	mov	sp, r7
 8001b20:	bc80      	pop	{r7}
 8001b22:	4770      	bx	lr
 8001b24:	40023800 	.word	0x40023800
 8001b28:	40020000 	.word	0x40020000
 8001b2c:	00000000 	.word	0x00000000

08001b30 <NSL19M51_read>:

void NSL19M51_read(NSL19M51_Reading *reading)
{
 8001b30:	b590      	push	{r4, r7, lr}
 8001b32:	b087      	sub	sp, #28
 8001b34:	af00      	add	r7, sp, #0
 8001b36:	6078      	str	r0, [r7, #4]
	int adc_result = 0;
 8001b38:	2300      	movs	r3, #0
 8001b3a:	617b      	str	r3, [r7, #20]

	ADC1->SQR5 |= 1;
 8001b3c:	4a36      	ldr	r2, [pc, #216]	; (8001c18 <NSL19M51_read+0xe8>)
 8001b3e:	4b36      	ldr	r3, [pc, #216]	; (8001c18 <NSL19M51_read+0xe8>)
 8001b40:	6c1b      	ldr	r3, [r3, #64]	; 0x40
 8001b42:	f043 0301 	orr.w	r3, r3, #1
 8001b46:	6413      	str	r3, [r2, #64]	; 0x40
	ADC1->CR2 |= ADC_CR2_ADON;
 8001b48:	4a33      	ldr	r2, [pc, #204]	; (8001c18 <NSL19M51_read+0xe8>)
 8001b4a:	4b33      	ldr	r3, [pc, #204]	; (8001c18 <NSL19M51_read+0xe8>)
 8001b4c:	689b      	ldr	r3, [r3, #8]
 8001b4e:	f043 0301 	orr.w	r3, r3, #1
 8001b52:	6093      	str	r3, [r2, #8]
	ADC1->CR2 |= ADC_CR2_SWSTART;
 8001b54:	4a30      	ldr	r2, [pc, #192]	; (8001c18 <NSL19M51_read+0xe8>)
 8001b56:	4b30      	ldr	r3, [pc, #192]	; (8001c18 <NSL19M51_read+0xe8>)
 8001b58:	689b      	ldr	r3, [r3, #8]
 8001b5a:	f043 4380 	orr.w	r3, r3, #1073741824	; 0x40000000
 8001b5e:	6093      	str	r3, [r2, #8]

	while(!(ADC1->SR & ADC_SR_EOC)){}
 8001b60:	bf00      	nop
 8001b62:	4b2d      	ldr	r3, [pc, #180]	; (8001c18 <NSL19M51_read+0xe8>)
 8001b64:	681b      	ldr	r3, [r3, #0]
 8001b66:	f003 0302 	and.w	r3, r3, #2
 8001b6a:	2b00      	cmp	r3, #0
 8001b6c:	d0f9      	beq.n	8001b62 <NSL19M51_read+0x32>

	adc_result = ADC1->DR;
 8001b6e:	4b2a      	ldr	r3, [pc, #168]	; (8001c18 <NSL19M51_read+0xe8>)
 8001b70:	6d9b      	ldr	r3, [r3, #88]	; 0x58
 8001b72:	617b      	str	r3, [r7, #20]

	ADC1->CR2 &= ~ADC_CR2_ADON;
 8001b74:	4a28      	ldr	r2, [pc, #160]	; (8001c18 <NSL19M51_read+0xe8>)
 8001b76:	4b28      	ldr	r3, [pc, #160]	; (8001c18 <NSL19M51_read+0xe8>)
 8001b78:	689b      	ldr	r3, [r3, #8]
 8001b7a:	f023 0301 	bic.w	r3, r3, #1
 8001b7e:	6093      	str	r3, [r2, #8]

	float voltage = ADC_STEP_SIZE_U * adc_result;
 8001b80:	6978      	ldr	r0, [r7, #20]
 8001b82:	f7ff f89f 	bl	8000cc4 <__aeabi_i2f>
 8001b86:	4603      	mov	r3, r0
 8001b88:	4924      	ldr	r1, [pc, #144]	; (8001c1c <NSL19M51_read+0xec>)
 8001b8a:	4618      	mov	r0, r3
 8001b8c:	f7ff f8ee 	bl	8000d6c <__aeabi_fmul>
 8001b90:	4603      	mov	r3, r0
 8001b92:	613b      	str	r3, [r7, #16]
	float lux = 1.9634f * exp(2.1281f * voltage);
 8001b94:	4922      	ldr	r1, [pc, #136]	; (8001c20 <NSL19M51_read+0xf0>)
 8001b96:	6938      	ldr	r0, [r7, #16]
 8001b98:	f7ff f8e8 	bl	8000d6c <__aeabi_fmul>
 8001b9c:	4603      	mov	r3, r0
 8001b9e:	4618      	mov	r0, r3
 8001ba0:	f7fe fc5a 	bl	8000458 <__aeabi_f2d>
 8001ba4:	4603      	mov	r3, r0
 8001ba6:	460c      	mov	r4, r1
 8001ba8:	4618      	mov	r0, r3
 8001baa:	4621      	mov	r1, r4
 8001bac:	f003 f9d4 	bl	8004f58 <exp>
 8001bb0:	a317      	add	r3, pc, #92	; (adr r3, 8001c10 <NSL19M51_read+0xe0>)
 8001bb2:	e9d3 2300 	ldrd	r2, r3, [r3]
 8001bb6:	f7fe fca3 	bl	8000500 <__aeabi_dmul>
 8001bba:	4603      	mov	r3, r0
 8001bbc:	460c      	mov	r4, r1
 8001bbe:	4618      	mov	r0, r3
 8001bc0:	4621      	mov	r1, r4
 8001bc2:	f7fe ff75 	bl	8000ab0 <__aeabi_d2f>
 8001bc6:	4603      	mov	r3, r0
 8001bc8:	60fb      	str	r3, [r7, #12]

	reading->lux_int = (uint8_t)lux;
 8001bca:	68f8      	ldr	r0, [r7, #12]
 8001bcc:	f7ff fa1e 	bl	800100c <__aeabi_f2uiz>
 8001bd0:	4603      	mov	r3, r0
 8001bd2:	b2da      	uxtb	r2, r3
 8001bd4:	687b      	ldr	r3, [r7, #4]
 8001bd6:	701a      	strb	r2, [r3, #0]
	reading->lux_dec = (uint8_t)((lux - reading->lux_int) * 100);
 8001bd8:	687b      	ldr	r3, [r7, #4]
 8001bda:	781b      	ldrb	r3, [r3, #0]
 8001bdc:	4618      	mov	r0, r3
 8001bde:	f7ff f871 	bl	8000cc4 <__aeabi_i2f>
 8001be2:	4603      	mov	r3, r0
 8001be4:	4619      	mov	r1, r3
 8001be6:	68f8      	ldr	r0, [r7, #12]
 8001be8:	f7fe ffb6 	bl	8000b58 <__aeabi_fsub>
 8001bec:	4603      	mov	r3, r0
 8001bee:	490d      	ldr	r1, [pc, #52]	; (8001c24 <NSL19M51_read+0xf4>)
 8001bf0:	4618      	mov	r0, r3
 8001bf2:	f7ff f8bb 	bl	8000d6c <__aeabi_fmul>
 8001bf6:	4603      	mov	r3, r0
 8001bf8:	4618      	mov	r0, r3
 8001bfa:	f7ff fa07 	bl	800100c <__aeabi_f2uiz>
 8001bfe:	4603      	mov	r3, r0
 8001c00:	b2da      	uxtb	r2, r3
 8001c02:	687b      	ldr	r3, [r7, #4]
 8001c04:	705a      	strb	r2, [r3, #1]
}
 8001c06:	bf00      	nop
 8001c08:	371c      	adds	r7, #28
 8001c0a:	46bd      	mov	sp, r7
 8001c0c:	bd90      	pop	{r4, r7, pc}
 8001c0e:	bf00      	nop
 8001c10:	20000000 	.word	0x20000000
 8001c14:	3fff6a16 	.word	0x3fff6a16
 8001c18:	40012400 	.word	0x40012400
 8001c1c:	3a533332 	.word	0x3a533332
 8001c20:	400832ca 	.word	0x400832ca
 8001c24:	42c80000 	.word	0x42c80000

08001c28 <delay_us>:
#include "timing.h"
#include "stm32l1xx.h"

void delay_us(unsigned long delay)
{
 8001c28:	b480      	push	{r7}
 8001c2a:	b085      	sub	sp, #20
 8001c2c:	af00      	add	r7, sp, #0
 8001c2e:	6078      	str	r0, [r7, #4]
	unsigned long i = 0;
 8001c30:	2300      	movs	r3, #0
 8001c32:	60fb      	str	r3, [r7, #12]
	SysTick->LOAD = 32 - 1; //32 000 000 = 1s so 32 = 1 us
 8001c34:	4b0e      	ldr	r3, [pc, #56]	; (8001c70 <delay_us+0x48>)
 8001c36:	221f      	movs	r2, #31
 8001c38:	605a      	str	r2, [r3, #4]
	SysTick->VAL = 0;
 8001c3a:	4b0d      	ldr	r3, [pc, #52]	; (8001c70 <delay_us+0x48>)
 8001c3c:	2200      	movs	r2, #0
 8001c3e:	609a      	str	r2, [r3, #8]
	SysTick->CTRL = 5;
 8001c40:	4b0b      	ldr	r3, [pc, #44]	; (8001c70 <delay_us+0x48>)
 8001c42:	2205      	movs	r2, #5
 8001c44:	601a      	str	r2, [r3, #0]

	  while(i < delay)
 8001c46:	e009      	b.n	8001c5c <delay_us+0x34>
	  {
		  while(!((SysTick->CTRL) & 0x10000)){}
 8001c48:	bf00      	nop
 8001c4a:	4b09      	ldr	r3, [pc, #36]	; (8001c70 <delay_us+0x48>)
 8001c4c:	681b      	ldr	r3, [r3, #0]
 8001c4e:	f403 3380 	and.w	r3, r3, #65536	; 0x10000
 8001c52:	2b00      	cmp	r3, #0
 8001c54:	d0f9      	beq.n	8001c4a <delay_us+0x22>
		  i++;
 8001c56:	68fb      	ldr	r3, [r7, #12]
 8001c58:	3301      	adds	r3, #1
 8001c5a:	60fb      	str	r3, [r7, #12]
	  while(i < delay)
 8001c5c:	68fa      	ldr	r2, [r7, #12]
 8001c5e:	687b      	ldr	r3, [r7, #4]
 8001c60:	429a      	cmp	r2, r3
 8001c62:	d3f1      	bcc.n	8001c48 <delay_us+0x20>
	  }
}
 8001c64:	bf00      	nop
 8001c66:	3714      	adds	r7, #20
 8001c68:	46bd      	mov	sp, r7
 8001c6a:	bc80      	pop	{r7}
 8001c6c:	4770      	bx	lr
 8001c6e:	bf00      	nop
 8001c70:	e000e010 	.word	0xe000e010

08001c74 <delay_ms>:

void delay_ms(unsigned long delay)
{
 8001c74:	b480      	push	{r7}
 8001c76:	b085      	sub	sp, #20
 8001c78:	af00      	add	r7, sp, #0
 8001c7a:	6078      	str	r0, [r7, #4]
	unsigned long i = 0;
 8001c7c:	2300      	movs	r3, #0
 8001c7e:	60fb      	str	r3, [r7, #12]
	SysTick->LOAD = 32000 - 1; //32 000 000 = 1s so 32 000 = 1 ms
 8001c80:	4b0e      	ldr	r3, [pc, #56]	; (8001cbc <delay_ms+0x48>)
 8001c82:	f647 42ff 	movw	r2, #31999	; 0x7cff
 8001c86:	605a      	str	r2, [r3, #4]
	SysTick->VAL = 0;
 8001c88:	4b0c      	ldr	r3, [pc, #48]	; (8001cbc <delay_ms+0x48>)
 8001c8a:	2200      	movs	r2, #0
 8001c8c:	609a      	str	r2, [r3, #8]
	SysTick->CTRL = 5;
 8001c8e:	4b0b      	ldr	r3, [pc, #44]	; (8001cbc <delay_ms+0x48>)
 8001c90:	2205      	movs	r2, #5
 8001c92:	601a      	str	r2, [r3, #0]
		  
	while(i < delay)
 8001c94:	e009      	b.n	8001caa <delay_ms+0x36>
	{	
		while(!((SysTick->CTRL) & 0x10000)){} //M3 Generic User Guide p. 159
 8001c96:	bf00      	nop
 8001c98:	4b08      	ldr	r3, [pc, #32]	; (8001cbc <delay_ms+0x48>)
 8001c9a:	681b      	ldr	r3, [r3, #0]
 8001c9c:	f403 3380 	and.w	r3, r3, #65536	; 0x10000
 8001ca0:	2b00      	cmp	r3, #0
 8001ca2:	d0f9      	beq.n	8001c98 <delay_ms+0x24>
		i++;
 8001ca4:	68fb      	ldr	r3, [r7, #12]
 8001ca6:	3301      	adds	r3, #1
 8001ca8:	60fb      	str	r3, [r7, #12]
	while(i < delay)
 8001caa:	68fa      	ldr	r2, [r7, #12]
 8001cac:	687b      	ldr	r3, [r7, #4]
 8001cae:	429a      	cmp	r2, r3
 8001cb0:	d3f1      	bcc.n	8001c96 <delay_ms+0x22>
	}
}
 8001cb2:	bf00      	nop
 8001cb4:	3714      	adds	r7, #20
 8001cb6:	46bd      	mov	sp, r7
 8001cb8:	bc80      	pop	{r7}
 8001cba:	4770      	bx	lr
 8001cbc:	e000e010 	.word	0xe000e010

08001cc0 <SetSysClock>:
void SetSysClock(void)
{
 8001cc0:	b480      	push	{r7}
 8001cc2:	b083      	sub	sp, #12
 8001cc4:	af00      	add	r7, sp, #0
	uint32_t status = 0;
 8001cc6:	2300      	movs	r3, #0
 8001cc8:	607b      	str	r3, [r7, #4]

  /* Enable HSI */
  RCC->CR |= (uint32_t)1;
 8001cca:	4a3d      	ldr	r2, [pc, #244]	; (8001dc0 <SetSysClock+0x100>)
 8001ccc:	4b3c      	ldr	r3, [pc, #240]	; (8001dc0 <SetSysClock+0x100>)
 8001cce:	681b      	ldr	r3, [r3, #0]
 8001cd0:	f043 0301 	orr.w	r3, r3, #1
 8001cd4:	6013      	str	r3, [r2, #0]

  /* Wait till HSI is ready and if Time out is reached exit */
 while(!(RCC->CR & (uint32_t)2)){} //CR bit 1 HSIRDY sets when HSI oscillator is stable. p141
 8001cd6:	bf00      	nop
 8001cd8:	4b39      	ldr	r3, [pc, #228]	; (8001dc0 <SetSysClock+0x100>)
 8001cda:	681b      	ldr	r3, [r3, #0]
 8001cdc:	f003 0302 	and.w	r3, r3, #2
 8001ce0:	2b00      	cmp	r3, #0
 8001ce2:	d0f9      	beq.n	8001cd8 <SetSysClock+0x18>

  if ((RCC->CR & (uint32_t)2) != 0) //if CR bit 1 HSIDRY high when oscillator is stable.
 8001ce4:	4b36      	ldr	r3, [pc, #216]	; (8001dc0 <SetSysClock+0x100>)
 8001ce6:	681b      	ldr	r3, [r3, #0]
 8001ce8:	f003 0302 	and.w	r3, r3, #2
 8001cec:	2b00      	cmp	r3, #0
 8001cee:	d002      	beq.n	8001cf6 <SetSysClock+0x36>
  {
    status = 1;
 8001cf0:	2301      	movs	r3, #1
 8001cf2:	607b      	str	r3, [r7, #4]
 8001cf4:	e001      	b.n	8001cfa <SetSysClock+0x3a>
  }
  else
  {
    status = 0;
 8001cf6:	2300      	movs	r3, #0
 8001cf8:	607b      	str	r3, [r7, #4]
  }

  if (status == 1)
 8001cfa:	687b      	ldr	r3, [r7, #4]
 8001cfc:	2b01      	cmp	r3, #1
 8001cfe:	d10b      	bne.n	8001d18 <SetSysClock+0x58>
  {
    /*  PLL configuration: PLLCLK = (HSI * 4)/2 = 32 MHz */
	  //PLLSCR bit 16, PLLMUL bits 18-21, PLLDIV bits 22,23.
	  //0000 0000 1111 1101 0000 0000 0000 0000 corresponding bits
	  //these bits PLLSRC, PLLMUL and PLLDIV cleared
	  RCC->CFGR &= ~(0x00FD0000);
 8001d00:	4a2f      	ldr	r2, [pc, #188]	; (8001dc0 <SetSysClock+0x100>)
 8001d02:	4b2f      	ldr	r3, [pc, #188]	; (8001dc0 <SetSysClock+0x100>)
 8001d04:	689b      	ldr	r3, [r3, #8]
 8001d06:	f423 037d 	bic.w	r3, r3, #16580608	; 0xfd0000
 8001d0a:	6093      	str	r3, [r2, #8]
	  //PLLMUL must be 0001 when multiplication=4 and PLLDIV must be 01 when division=2
	  //PLLSCR bit 16 must be 1 --> HSE oscillator clock selected as PLL input clock (done in previous line)
	  //0000 0000 0100 0100 0000 0000 0000 0000
	  RCC->CFGR |= 0x00440000;
 8001d0c:	4a2c      	ldr	r2, [pc, #176]	; (8001dc0 <SetSysClock+0x100>)
 8001d0e:	4b2c      	ldr	r3, [pc, #176]	; (8001dc0 <SetSysClock+0x100>)
 8001d10:	689b      	ldr	r3, [r3, #8]
 8001d12:	f443 0388 	orr.w	r3, r3, #4456448	; 0x440000
 8001d16:	6093      	str	r3, [r2, #8]
    configuration. User can add here some code to deal with this error */
  }
  
  /*64-bit access is configured by setting the ACC64 bit in the Flash access control register (FLASH_ACR).
   *This access mode accelerates the execution of program operations.*/
  FLASH->ACR |= (uint32_t)4; //ACC64 bit 2, 64-bit access. 64-bit access is used to improve the performance. p84
 8001d18:	4a2a      	ldr	r2, [pc, #168]	; (8001dc4 <SetSysClock+0x104>)
 8001d1a:	4b2a      	ldr	r3, [pc, #168]	; (8001dc4 <SetSysClock+0x104>)
 8001d1c:	681b      	ldr	r3, [r3, #0]
 8001d1e:	f043 0304 	orr.w	r3, r3, #4
 8001d22:	6013      	str	r3, [r2, #0]
    /*Prefetch is enabled by setting the PRFTEN bit in the FLASH_ACR register.
    *This feature is useful if at least one wait state is needed to access the Flash memory.
	*Figure 5 shows the execution of sequential 32-bit instructions*/
  FLASH->ACR |= (uint32_t)2; //PRFTEN bit 1, prefetch enable. p84
 8001d24:	4a27      	ldr	r2, [pc, #156]	; (8001dc4 <SetSysClock+0x104>)
 8001d26:	4b27      	ldr	r3, [pc, #156]	; (8001dc4 <SetSysClock+0x104>)
 8001d28:	681b      	ldr	r3, [r3, #0]
 8001d2a:	f043 0302 	orr.w	r3, r3, #2
 8001d2e:	6013      	str	r3, [r2, #0]
  FLASH->ACR |= (uint32_t)1; //LATENCY one wait state bit 0. One wait state enabled. p84. p59
 8001d30:	4a24      	ldr	r2, [pc, #144]	; (8001dc4 <SetSysClock+0x104>)
 8001d32:	4b24      	ldr	r3, [pc, #144]	; (8001dc4 <SetSysClock+0x104>)
 8001d34:	681b      	ldr	r3, [r3, #0]
 8001d36:	f043 0301 	orr.w	r3, r3, #1
 8001d3a:	6013      	str	r3, [r2, #0]

  RCC->APB1ENR |= 0x10000000; //bit 28 PWREN: Power interface clock enable. p158. p101
 8001d3c:	4a20      	ldr	r2, [pc, #128]	; (8001dc0 <SetSysClock+0x100>)
 8001d3e:	4b20      	ldr	r3, [pc, #128]	; (8001dc0 <SetSysClock+0x100>)
 8001d40:	6a5b      	ldr	r3, [r3, #36]	; 0x24
 8001d42:	f043 5380 	orr.w	r3, r3, #268435456	; 0x10000000
 8001d46:	6253      	str	r3, [r2, #36]	; 0x24
  PWR->CR = (uint32_t)(1<<11); //Bits 12:11 VOS[1:0]: Voltage scaling range selection, 01: 1.8 V (range 1). p121
 8001d48:	4b1f      	ldr	r3, [pc, #124]	; (8001dc8 <SetSysClock+0x108>)
 8001d4a:	f44f 6200 	mov.w	r2, #2048	; 0x800
 8001d4e:	601a      	str	r2, [r3, #0]
	of PWR_CR register. p102 1.8V needed for 32 MHz clock and lower voltages to save power.

	0: Regulator is ready in the selected voltage range
	1: Regulator voltage output is changing to the required VOS level.
	*/
  while((PWR->CSR & (uint32_t)(1<<4)) != 0){} //bit 4 VOSF: Voltage Scaling select flag. p125
 8001d50:	bf00      	nop
 8001d52:	4b1d      	ldr	r3, [pc, #116]	; (8001dc8 <SetSysClock+0x108>)
 8001d54:	685b      	ldr	r3, [r3, #4]
 8001d56:	f003 0310 	and.w	r3, r3, #16
 8001d5a:	2b00      	cmp	r3, #0
 8001d5c:	d1f9      	bne.n	8001d52 <SetSysClock+0x92>
    
  RCC->CFGR &=(uint32_t)~(1<<7); //Bits 7:4 HPRE[3:0]: AHB prescaler. 0xxx: SYSCLK not divided. p144
 8001d5e:	4a18      	ldr	r2, [pc, #96]	; (8001dc0 <SetSysClock+0x100>)
 8001d60:	4b17      	ldr	r3, [pc, #92]	; (8001dc0 <SetSysClock+0x100>)
 8001d62:	689b      	ldr	r3, [r3, #8]
 8001d64:	f023 0380 	bic.w	r3, r3, #128	; 0x80
 8001d68:	6093      	str	r3, [r2, #8]
  RCC->CFGR &=(uint32_t)~(1<<13); //Bits 13:11 PPRE2[2:0]: APB high-speed prescaler (APB2). p144
 8001d6a:	4a15      	ldr	r2, [pc, #84]	; (8001dc0 <SetSysClock+0x100>)
 8001d6c:	4b14      	ldr	r3, [pc, #80]	; (8001dc0 <SetSysClock+0x100>)
 8001d6e:	689b      	ldr	r3, [r3, #8]
 8001d70:	f423 5300 	bic.w	r3, r3, #8192	; 0x2000
 8001d74:	6093      	str	r3, [r2, #8]
  RCC->CFGR &=(uint32_t)~(1<<10); //Bits 10:8 PPRE1[2:0]: APB low-speed prescaler (APB1)p. 144
 8001d76:	4a12      	ldr	r2, [pc, #72]	; (8001dc0 <SetSysClock+0x100>)
 8001d78:	4b11      	ldr	r3, [pc, #68]	; (8001dc0 <SetSysClock+0x100>)
 8001d7a:	689b      	ldr	r3, [r3, #8]
 8001d7c:	f423 6380 	bic.w	r3, r3, #1024	; 0x400
 8001d80:	6093      	str	r3, [r2, #8]

  RCC->CR |= (1<<24); //Bit 24 PLLON: PLL enable. p140
 8001d82:	4a0f      	ldr	r2, [pc, #60]	; (8001dc0 <SetSysClock+0x100>)
 8001d84:	4b0e      	ldr	r3, [pc, #56]	; (8001dc0 <SetSysClock+0x100>)
 8001d86:	681b      	ldr	r3, [r3, #0]
 8001d88:	f043 7380 	orr.w	r3, r3, #16777216	; 0x1000000
 8001d8c:	6013      	str	r3, [r2, #0]
  while((RCC->CR & (uint32_t)(1<<25)) == 0){} //Bit 25 PLLRDY: PLL clock ready flag. p140
 8001d8e:	bf00      	nop
 8001d90:	4b0b      	ldr	r3, [pc, #44]	; (8001dc0 <SetSysClock+0x100>)
 8001d92:	681b      	ldr	r3, [r3, #0]
 8001d94:	f003 7300 	and.w	r3, r3, #33554432	; 0x2000000
 8001d98:	2b00      	cmp	r3, #0
 8001d9a:	d0f9      	beq.n	8001d90 <SetSysClock+0xd0>
    
  /* Select PLL as system clock source */
  RCC->CFGR |= (uint32_t)3; //Bits 1:0 SW[1:0]: System clock switch, 11: PLL used as system clock
 8001d9c:	4a08      	ldr	r2, [pc, #32]	; (8001dc0 <SetSysClock+0x100>)
 8001d9e:	4b08      	ldr	r3, [pc, #32]	; (8001dc0 <SetSysClock+0x100>)
 8001da0:	689b      	ldr	r3, [r3, #8]
 8001da2:	f043 0303 	orr.w	r3, r3, #3
 8001da6:	6093      	str	r3, [r2, #8]
    
  /*Bits 3:2 SWS[1:0]: System clock switch status, 11: PLL used as system clock.
   * These bits are set and cleared by hardware to indicate which clock source is used as
	system clock. 11: PLL used as system clock. p145.
   */
  while ((RCC->CFGR & (uint32_t)(3<<2))==0){}
 8001da8:	bf00      	nop
 8001daa:	4b05      	ldr	r3, [pc, #20]	; (8001dc0 <SetSysClock+0x100>)
 8001dac:	689b      	ldr	r3, [r3, #8]
 8001dae:	f003 030c 	and.w	r3, r3, #12
 8001db2:	2b00      	cmp	r3, #0
 8001db4:	d0f9      	beq.n	8001daa <SetSysClock+0xea>
 8001db6:	bf00      	nop
 8001db8:	370c      	adds	r7, #12
 8001dba:	46bd      	mov	sp, r7
 8001dbc:	bc80      	pop	{r7}
 8001dbe:	4770      	bx	lr
 8001dc0:	40023800 	.word	0x40023800
 8001dc4:	40023c00 	.word	0x40023c00
 8001dc8:	40007000 	.word	0x40007000

08001dcc <main>:
#include <stdio.h>

#define BUFFER_SIZE 50

int main(void)
{
 8001dcc:	b580      	push	{r7, lr}
 8001dce:	b092      	sub	sp, #72	; 0x48
 8001dd0:	af02      	add	r7, sp, #8
	char buffer[BUFFER_SIZE];

	// CMSIS Initializations

	SetSysClock();
 8001dd2:	f7ff ff75 	bl	8001cc0 <SetSysClock>
	SystemCoreClockUpdate();
 8001dd6:	f000 f8e3 	bl	8001fa0 <SystemCoreClockUpdate>

	// Utils Initializations

	// Peripheral Initializations
	GPIO_init();
 8001dda:	f7ff faf5 	bl	80013c8 <GPIO_init>
	USART2_init();
 8001dde:	f7ff fb29 	bl	8001434 <USART2_init>
	TIM2_Init();
 8001de2:	f7ff fb07 	bl	80013f4 <TIM2_Init>

	// Sensor Initializations
	LMT84LP_init();
 8001de6:	f7ff fdff 	bl	80019e8 <LMT84LP_init>
	NSL19M51_init();
 8001dea:	f7ff fe89 	bl	8001b00 <NSL19M51_init>
	DHT22_init();
 8001dee:	f7ff fbcf 	bl	8001590 <DHT22_init>
	ADC_init();
 8001df2:	f7ff fab3 	bl	800135c <ADC_init>
	while (1)
	{
		//GPIOA->ODR |= GPIO_ODR_ODR_5; //0010 0000 set bit 5. p186

		NSL19M51_Reading nsl19m51_reading;
		NSL19M51_read(&nsl19m51_reading);
 8001df6:	f107 0308 	add.w	r3, r7, #8
 8001dfa:	4618      	mov	r0, r3
 8001dfc:	f7ff fe98 	bl	8001b30 <NSL19M51_read>
		snprintf(buffer, 100, "NSL19M51 Lux %d.%d", nsl19m51_reading.lux_int, nsl19m51_reading.lux_dec);
 8001e00:	7a3b      	ldrb	r3, [r7, #8]
 8001e02:	461a      	mov	r2, r3
 8001e04:	7a7b      	ldrb	r3, [r7, #9]
 8001e06:	f107 000c 	add.w	r0, r7, #12
 8001e0a:	9300      	str	r3, [sp, #0]
 8001e0c:	4613      	mov	r3, r2
 8001e0e:	4a24      	ldr	r2, [pc, #144]	; (8001ea0 <main+0xd4>)
 8001e10:	2164      	movs	r1, #100	; 0x64
 8001e12:	f000 f991 	bl	8002138 <snprintf>
		USART2_write_buffer(buffer);
 8001e16:	f107 030c 	add.w	r3, r7, #12
 8001e1a:	4618      	mov	r0, r3
 8001e1c:	f7ff fb62 	bl	80014e4 <USART2_write_buffer>

		LMT84LP_Reading lmt84lp_reading;
		LMT84LP_read(&lmt84lp_reading);
 8001e20:	1d3b      	adds	r3, r7, #4
 8001e22:	4618      	mov	r0, r3
 8001e24:	f7ff fdf6 	bl	8001a14 <LMT84LP_read>
		snprintf(buffer, 100, "LMT84LP Temperature %d.%d", lmt84lp_reading.temperature_int, lmt84lp_reading.temperature_dec);
 8001e28:	793b      	ldrb	r3, [r7, #4]
 8001e2a:	461a      	mov	r2, r3
 8001e2c:	797b      	ldrb	r3, [r7, #5]
 8001e2e:	f107 000c 	add.w	r0, r7, #12
 8001e32:	9300      	str	r3, [sp, #0]
 8001e34:	4613      	mov	r3, r2
 8001e36:	4a1b      	ldr	r2, [pc, #108]	; (8001ea4 <main+0xd8>)
 8001e38:	2164      	movs	r1, #100	; 0x64
 8001e3a:	f000 f97d 	bl	8002138 <snprintf>
		USART2_write_buffer(buffer);
 8001e3e:	f107 030c 	add.w	r3, r7, #12
 8001e42:	4618      	mov	r0, r3
 8001e44:	f7ff fb4e 	bl	80014e4 <USART2_write_buffer>

		DHT22_Reading dht22_reading;
		if(!(DHT22_read(&dht22_reading)))
 8001e48:	463b      	mov	r3, r7
 8001e4a:	4618      	mov	r0, r3
 8001e4c:	f7ff fbce 	bl	80015ec <DHT22_read>
 8001e50:	4603      	mov	r3, r0
 8001e52:	2b00      	cmp	r3, #0
 8001e54:	d11f      	bne.n	8001e96 <main+0xca>
		{
			snprintf(buffer, 100, "DHT22 Humidity %d.%d", dht22_reading.humidity_int, dht22_reading.humidity_dec);
 8001e56:	783b      	ldrb	r3, [r7, #0]
 8001e58:	461a      	mov	r2, r3
 8001e5a:	787b      	ldrb	r3, [r7, #1]
 8001e5c:	f107 000c 	add.w	r0, r7, #12
 8001e60:	9300      	str	r3, [sp, #0]
 8001e62:	4613      	mov	r3, r2
 8001e64:	4a10      	ldr	r2, [pc, #64]	; (8001ea8 <main+0xdc>)
 8001e66:	2164      	movs	r1, #100	; 0x64
 8001e68:	f000 f966 	bl	8002138 <snprintf>
			USART2_write_buffer(buffer);
 8001e6c:	f107 030c 	add.w	r3, r7, #12
 8001e70:	4618      	mov	r0, r3
 8001e72:	f7ff fb37 	bl	80014e4 <USART2_write_buffer>
			snprintf(buffer, 100, "DHT22 Temperature %d.%d", dht22_reading.temperature_int, dht22_reading.temperature_dec);
 8001e76:	78bb      	ldrb	r3, [r7, #2]
 8001e78:	461a      	mov	r2, r3
 8001e7a:	78fb      	ldrb	r3, [r7, #3]
 8001e7c:	f107 000c 	add.w	r0, r7, #12
 8001e80:	9300      	str	r3, [sp, #0]
 8001e82:	4613      	mov	r3, r2
 8001e84:	4a09      	ldr	r2, [pc, #36]	; (8001eac <main+0xe0>)
 8001e86:	2164      	movs	r1, #100	; 0x64
 8001e88:	f000 f956 	bl	8002138 <snprintf>
			USART2_write_buffer(buffer);
 8001e8c:	f107 030c 	add.w	r3, r7, #12
 8001e90:	4618      	mov	r0, r3
 8001e92:	f7ff fb27 	bl	80014e4 <USART2_write_buffer>
		}

		//GPIOA->ODR &= ~GPIO_ODR_ODR_5; //0000 0000 clear bit 5. p186
		delay_ms(1000);
 8001e96:	f44f 707a 	mov.w	r0, #1000	; 0x3e8
 8001e9a:	f7ff feeb 	bl	8001c74 <delay_ms>
	{
 8001e9e:	e7aa      	b.n	8001df6 <main+0x2a>
 8001ea0:	0800542c 	.word	0x0800542c
 8001ea4:	08005440 	.word	0x08005440
 8001ea8:	0800545c 	.word	0x0800545c
 8001eac:	08005474 	.word	0x08005474

08001eb0 <Reset_Handler>:
  .weak Reset_Handler
  .type Reset_Handler, %function
Reset_Handler:

/* Copy the data segment initializers from flash to SRAM */
  movs r1, #0
 8001eb0:	2100      	movs	r1, #0
  b LoopCopyDataInit
 8001eb2:	e003      	b.n	8001ebc <LoopCopyDataInit>

08001eb4 <CopyDataInit>:

CopyDataInit:
  ldr r3, =_sidata
 8001eb4:	4b0b      	ldr	r3, [pc, #44]	; (8001ee4 <LoopFillZerobss+0x14>)
  ldr r3, [r3, r1]
 8001eb6:	585b      	ldr	r3, [r3, r1]
  str r3, [r0, r1]
 8001eb8:	5043      	str	r3, [r0, r1]
  adds r1, r1, #4
 8001eba:	3104      	adds	r1, #4

08001ebc <LoopCopyDataInit>:

LoopCopyDataInit:
  ldr r0, =_sdata
 8001ebc:	480a      	ldr	r0, [pc, #40]	; (8001ee8 <LoopFillZerobss+0x18>)
  ldr r3, =_edata
 8001ebe:	4b0b      	ldr	r3, [pc, #44]	; (8001eec <LoopFillZerobss+0x1c>)
  adds r2, r0, r1
 8001ec0:	1842      	adds	r2, r0, r1
  cmp r2, r3
 8001ec2:	429a      	cmp	r2, r3
  bcc CopyDataInit
 8001ec4:	d3f6      	bcc.n	8001eb4 <CopyDataInit>
  ldr r2, =_sbss
 8001ec6:	4a0a      	ldr	r2, [pc, #40]	; (8001ef0 <LoopFillZerobss+0x20>)
  b LoopFillZerobss
 8001ec8:	e002      	b.n	8001ed0 <LoopFillZerobss>

08001eca <FillZerobss>:
/* Zero fill the bss segment. */
FillZerobss:
  movs r3, #0
 8001eca:	2300      	movs	r3, #0
  str r3, [r2], #4
 8001ecc:	f842 3b04 	str.w	r3, [r2], #4

08001ed0 <LoopFillZerobss>:

LoopFillZerobss:
  ldr r3, = _ebss
 8001ed0:	4b08      	ldr	r3, [pc, #32]	; (8001ef4 <LoopFillZerobss+0x24>)
  cmp r2, r3
 8001ed2:	429a      	cmp	r2, r3
  bcc FillZerobss
 8001ed4:	d3f9      	bcc.n	8001eca <FillZerobss>

/* Call the clock system intitialization function.*/
    bl  SystemInit
 8001ed6:	f000 f82f 	bl	8001f38 <SystemInit>
/* Call static constructors */
    bl __libc_init_array
 8001eda:	f000 f909 	bl	80020f0 <__libc_init_array>
/* Call the application's entry point.*/
  bl main
 8001ede:	f7ff ff75 	bl	8001dcc <main>
  bx lr
 8001ee2:	4770      	bx	lr
  ldr r3, =_sidata
 8001ee4:	08005760 	.word	0x08005760
  ldr r0, =_sdata
 8001ee8:	20000000 	.word	0x20000000
  ldr r3, =_edata
 8001eec:	20000678 	.word	0x20000678
  ldr r2, =_sbss
 8001ef0:	20000678 	.word	0x20000678
  ldr r3, = _ebss
 8001ef4:	2000070c 	.word	0x2000070c

08001ef8 <ADC1_IRQHandler>:
 * @retval : None
*/
    .section .text.Default_Handler,"ax",%progbits
Default_Handler:
Infinite_Loop:
  b Infinite_Loop
 8001ef8:	e7fe      	b.n	8001ef8 <ADC1_IRQHandler>
	...

08001efc <_sbrk>:
	errno = ENOSYS;
	return -1;
}

void * _sbrk(int32_t incr)
{
 8001efc:	b480      	push	{r7}
 8001efe:	b085      	sub	sp, #20
 8001f00:	af00      	add	r7, sp, #0
 8001f02:	6078      	str	r0, [r7, #4]
	extern char   end; /* Set by linker.  */
	static char * heap_end;
	char *        prev_heap_end;

	if (heap_end == 0) {
 8001f04:	4b0a      	ldr	r3, [pc, #40]	; (8001f30 <_sbrk+0x34>)
 8001f06:	681b      	ldr	r3, [r3, #0]
 8001f08:	2b00      	cmp	r3, #0
 8001f0a:	d102      	bne.n	8001f12 <_sbrk+0x16>
		heap_end = & end;
 8001f0c:	4b08      	ldr	r3, [pc, #32]	; (8001f30 <_sbrk+0x34>)
 8001f0e:	4a09      	ldr	r2, [pc, #36]	; (8001f34 <_sbrk+0x38>)
 8001f10:	601a      	str	r2, [r3, #0]
	}

	prev_heap_end = heap_end;
 8001f12:	4b07      	ldr	r3, [pc, #28]	; (8001f30 <_sbrk+0x34>)
 8001f14:	681b      	ldr	r3, [r3, #0]
 8001f16:	60fb      	str	r3, [r7, #12]
	heap_end += incr;
 8001f18:	4b05      	ldr	r3, [pc, #20]	; (8001f30 <_sbrk+0x34>)
 8001f1a:	681a      	ldr	r2, [r3, #0]
 8001f1c:	687b      	ldr	r3, [r7, #4]
 8001f1e:	4413      	add	r3, r2
 8001f20:	4a03      	ldr	r2, [pc, #12]	; (8001f30 <_sbrk+0x34>)
 8001f22:	6013      	str	r3, [r2, #0]

	return (void *) prev_heap_end;
 8001f24:	68fb      	ldr	r3, [r7, #12]
}
 8001f26:	4618      	mov	r0, r3
 8001f28:	3714      	adds	r7, #20
 8001f2a:	46bd      	mov	sp, r7
 8001f2c:	bc80      	pop	{r7}
 8001f2e:	4770      	bx	lr
 8001f30:	200006c4 	.word	0x200006c4
 8001f34:	2000070c 	.word	0x2000070c

08001f38 <SystemInit>:
  *         SystemCoreClock variable.
  * @param  None
  * @retval None
  */
void SystemInit (void)
{
 8001f38:	b480      	push	{r7}
 8001f3a:	af00      	add	r7, sp, #0
  /*!< Set MSION bit */
  RCC->CR |= (uint32_t)0x00000100;
 8001f3c:	4a15      	ldr	r2, [pc, #84]	; (8001f94 <SystemInit+0x5c>)
 8001f3e:	4b15      	ldr	r3, [pc, #84]	; (8001f94 <SystemInit+0x5c>)
 8001f40:	681b      	ldr	r3, [r3, #0]
 8001f42:	f443 7380 	orr.w	r3, r3, #256	; 0x100
 8001f46:	6013      	str	r3, [r2, #0]

  /*!< Reset SW[1:0], HPRE[3:0], PPRE1[2:0], PPRE2[2:0], MCOSEL[2:0] and MCOPRE[2:0] bits */
  RCC->CFGR &= (uint32_t)0x88FFC00C;
 8001f48:	4912      	ldr	r1, [pc, #72]	; (8001f94 <SystemInit+0x5c>)
 8001f4a:	4b12      	ldr	r3, [pc, #72]	; (8001f94 <SystemInit+0x5c>)
 8001f4c:	689a      	ldr	r2, [r3, #8]
 8001f4e:	4b12      	ldr	r3, [pc, #72]	; (8001f98 <SystemInit+0x60>)
 8001f50:	4013      	ands	r3, r2
 8001f52:	608b      	str	r3, [r1, #8]
  
  /*!< Reset HSION, HSEON, CSSON and PLLON bits */
  RCC->CR &= (uint32_t)0xEEFEFFFE;
 8001f54:	4a0f      	ldr	r2, [pc, #60]	; (8001f94 <SystemInit+0x5c>)
 8001f56:	4b0f      	ldr	r3, [pc, #60]	; (8001f94 <SystemInit+0x5c>)
 8001f58:	681b      	ldr	r3, [r3, #0]
 8001f5a:	f023 5388 	bic.w	r3, r3, #285212672	; 0x11000000
 8001f5e:	f023 1301 	bic.w	r3, r3, #65537	; 0x10001
 8001f62:	6013      	str	r3, [r2, #0]

  /*!< Reset HSEBYP bit */
  RCC->CR &= (uint32_t)0xFFFBFFFF;
 8001f64:	4a0b      	ldr	r2, [pc, #44]	; (8001f94 <SystemInit+0x5c>)
 8001f66:	4b0b      	ldr	r3, [pc, #44]	; (8001f94 <SystemInit+0x5c>)
 8001f68:	681b      	ldr	r3, [r3, #0]
 8001f6a:	f423 2380 	bic.w	r3, r3, #262144	; 0x40000
 8001f6e:	6013      	str	r3, [r2, #0]

  /*!< Reset PLLSRC, PLLMUL[3:0] and PLLDIV[1:0] bits */
  RCC->CFGR &= (uint32_t)0xFF02FFFF;
 8001f70:	4a08      	ldr	r2, [pc, #32]	; (8001f94 <SystemInit+0x5c>)
 8001f72:	4b08      	ldr	r3, [pc, #32]	; (8001f94 <SystemInit+0x5c>)
 8001f74:	689b      	ldr	r3, [r3, #8]
 8001f76:	f423 037d 	bic.w	r3, r3, #16580608	; 0xfd0000
 8001f7a:	6093      	str	r3, [r2, #8]

  /*!< Disable all interrupts */
  RCC->CIR = 0x00000000;
 8001f7c:	4b05      	ldr	r3, [pc, #20]	; (8001f94 <SystemInit+0x5c>)
 8001f7e:	2200      	movs	r2, #0
 8001f80:	60da      	str	r2, [r3, #12]
#endif /* DATA_IN_ExtSRAM */
    
#ifdef VECT_TAB_SRAM
  SCB->VTOR = SRAM_BASE | VECT_TAB_OFFSET; /* Vector Table Relocation in Internal SRAM. */
#else
  SCB->VTOR = FLASH_BASE | VECT_TAB_OFFSET; /* Vector Table Relocation in Internal FLASH. */
 8001f82:	4b06      	ldr	r3, [pc, #24]	; (8001f9c <SystemInit+0x64>)
 8001f84:	f04f 6200 	mov.w	r2, #134217728	; 0x8000000
 8001f88:	609a      	str	r2, [r3, #8]
#endif
}
 8001f8a:	bf00      	nop
 8001f8c:	46bd      	mov	sp, r7
 8001f8e:	bc80      	pop	{r7}
 8001f90:	4770      	bx	lr
 8001f92:	bf00      	nop
 8001f94:	40023800 	.word	0x40023800
 8001f98:	88ffc00c 	.word	0x88ffc00c
 8001f9c:	e000ed00 	.word	0xe000ed00

08001fa0 <SystemCoreClockUpdate>:
  *           value for HSE crystal.
  * @param  None
  * @retval None
  */
void SystemCoreClockUpdate (void)
{
 8001fa0:	b480      	push	{r7}
 8001fa2:	b087      	sub	sp, #28
 8001fa4:	af00      	add	r7, sp, #0
  uint32_t tmp = 0, pllmul = 0, plldiv = 0, pllsource = 0, msirange = 0;
 8001fa6:	2300      	movs	r3, #0
 8001fa8:	617b      	str	r3, [r7, #20]
 8001faa:	2300      	movs	r3, #0
 8001fac:	613b      	str	r3, [r7, #16]
 8001fae:	2300      	movs	r3, #0
 8001fb0:	60fb      	str	r3, [r7, #12]
 8001fb2:	2300      	movs	r3, #0
 8001fb4:	60bb      	str	r3, [r7, #8]
 8001fb6:	2300      	movs	r3, #0
 8001fb8:	607b      	str	r3, [r7, #4]

  /* Get SYSCLK source -------------------------------------------------------*/
  tmp = RCC->CFGR & RCC_CFGR_SWS;
 8001fba:	4b48      	ldr	r3, [pc, #288]	; (80020dc <SystemCoreClockUpdate+0x13c>)
 8001fbc:	689b      	ldr	r3, [r3, #8]
 8001fbe:	f003 030c 	and.w	r3, r3, #12
 8001fc2:	617b      	str	r3, [r7, #20]
  
  switch (tmp)
 8001fc4:	697b      	ldr	r3, [r7, #20]
 8001fc6:	2b0c      	cmp	r3, #12
 8001fc8:	d863      	bhi.n	8002092 <SystemCoreClockUpdate+0xf2>
 8001fca:	a201      	add	r2, pc, #4	; (adr r2, 8001fd0 <SystemCoreClockUpdate+0x30>)
 8001fcc:	f852 f023 	ldr.w	pc, [r2, r3, lsl #2]
 8001fd0:	08002005 	.word	0x08002005
 8001fd4:	08002093 	.word	0x08002093
 8001fd8:	08002093 	.word	0x08002093
 8001fdc:	08002093 	.word	0x08002093
 8001fe0:	08002025 	.word	0x08002025
 8001fe4:	08002093 	.word	0x08002093
 8001fe8:	08002093 	.word	0x08002093
 8001fec:	08002093 	.word	0x08002093
 8001ff0:	0800202d 	.word	0x0800202d
 8001ff4:	08002093 	.word	0x08002093
 8001ff8:	08002093 	.word	0x08002093
 8001ffc:	08002093 	.word	0x08002093
 8002000:	08002035 	.word	0x08002035
  {
    case 0x00:  /* MSI used as system clock */
      msirange = (RCC->ICSCR & RCC_ICSCR_MSIRANGE) >> 13;
 8002004:	4b35      	ldr	r3, [pc, #212]	; (80020dc <SystemCoreClockUpdate+0x13c>)
 8002006:	685b      	ldr	r3, [r3, #4]
 8002008:	0b5b      	lsrs	r3, r3, #13
 800200a:	f003 0307 	and.w	r3, r3, #7
 800200e:	607b      	str	r3, [r7, #4]
      SystemCoreClock = (32768 * (1 << (msirange + 1)));
 8002010:	687b      	ldr	r3, [r7, #4]
 8002012:	3301      	adds	r3, #1
 8002014:	f44f 4200 	mov.w	r2, #32768	; 0x8000
 8002018:	fa02 f303 	lsl.w	r3, r2, r3
 800201c:	461a      	mov	r2, r3
 800201e:	4b30      	ldr	r3, [pc, #192]	; (80020e0 <SystemCoreClockUpdate+0x140>)
 8002020:	601a      	str	r2, [r3, #0]
      break;
 8002022:	e046      	b.n	80020b2 <SystemCoreClockUpdate+0x112>
    case 0x04:  /* HSI used as system clock */
      SystemCoreClock = HSI_VALUE;
 8002024:	4b2e      	ldr	r3, [pc, #184]	; (80020e0 <SystemCoreClockUpdate+0x140>)
 8002026:	4a2f      	ldr	r2, [pc, #188]	; (80020e4 <SystemCoreClockUpdate+0x144>)
 8002028:	601a      	str	r2, [r3, #0]
      break;
 800202a:	e042      	b.n	80020b2 <SystemCoreClockUpdate+0x112>
    case 0x08:  /* HSE used as system clock */
      SystemCoreClock = HSE_VALUE;
 800202c:	4b2c      	ldr	r3, [pc, #176]	; (80020e0 <SystemCoreClockUpdate+0x140>)
 800202e:	4a2d      	ldr	r2, [pc, #180]	; (80020e4 <SystemCoreClockUpdate+0x144>)
 8002030:	601a      	str	r2, [r3, #0]
      break;
 8002032:	e03e      	b.n	80020b2 <SystemCoreClockUpdate+0x112>
    case 0x0C:  /* PLL used as system clock */
      /* Get PLL clock source and multiplication factor ----------------------*/
      pllmul = RCC->CFGR & RCC_CFGR_PLLMUL;
 8002034:	4b29      	ldr	r3, [pc, #164]	; (80020dc <SystemCoreClockUpdate+0x13c>)
 8002036:	689b      	ldr	r3, [r3, #8]
 8002038:	f403 1370 	and.w	r3, r3, #3932160	; 0x3c0000
 800203c:	613b      	str	r3, [r7, #16]
      plldiv = RCC->CFGR & RCC_CFGR_PLLDIV;
 800203e:	4b27      	ldr	r3, [pc, #156]	; (80020dc <SystemCoreClockUpdate+0x13c>)
 8002040:	689b      	ldr	r3, [r3, #8]
 8002042:	f403 0340 	and.w	r3, r3, #12582912	; 0xc00000
 8002046:	60fb      	str	r3, [r7, #12]
      pllmul = PLLMulTable[(pllmul >> 18)];
 8002048:	693b      	ldr	r3, [r7, #16]
 800204a:	0c9b      	lsrs	r3, r3, #18
 800204c:	4a26      	ldr	r2, [pc, #152]	; (80020e8 <SystemCoreClockUpdate+0x148>)
 800204e:	5cd3      	ldrb	r3, [r2, r3]
 8002050:	613b      	str	r3, [r7, #16]
      plldiv = (plldiv >> 22) + 1;
 8002052:	68fb      	ldr	r3, [r7, #12]
 8002054:	0d9b      	lsrs	r3, r3, #22
 8002056:	3301      	adds	r3, #1
 8002058:	60fb      	str	r3, [r7, #12]
      
      pllsource = RCC->CFGR & RCC_CFGR_PLLSRC;
 800205a:	4b20      	ldr	r3, [pc, #128]	; (80020dc <SystemCoreClockUpdate+0x13c>)
 800205c:	689b      	ldr	r3, [r3, #8]
 800205e:	f403 3380 	and.w	r3, r3, #65536	; 0x10000
 8002062:	60bb      	str	r3, [r7, #8]

      if (pllsource == 0x00)
 8002064:	68bb      	ldr	r3, [r7, #8]
 8002066:	2b00      	cmp	r3, #0
 8002068:	d109      	bne.n	800207e <SystemCoreClockUpdate+0xde>
      {
        /* HSI oscillator clock selected as PLL clock entry */
        SystemCoreClock = (((HSI_VALUE) * pllmul) / plldiv);
 800206a:	693b      	ldr	r3, [r7, #16]
 800206c:	4a1d      	ldr	r2, [pc, #116]	; (80020e4 <SystemCoreClockUpdate+0x144>)
 800206e:	fb02 f203 	mul.w	r2, r2, r3
 8002072:	68fb      	ldr	r3, [r7, #12]
 8002074:	fbb2 f3f3 	udiv	r3, r2, r3
 8002078:	4a19      	ldr	r2, [pc, #100]	; (80020e0 <SystemCoreClockUpdate+0x140>)
 800207a:	6013      	str	r3, [r2, #0]
      else
      {
        /* HSE selected as PLL clock entry */
        SystemCoreClock = (((HSE_VALUE) * pllmul) / plldiv);
      }
      break;
 800207c:	e019      	b.n	80020b2 <SystemCoreClockUpdate+0x112>
        SystemCoreClock = (((HSE_VALUE) * pllmul) / plldiv);
 800207e:	693b      	ldr	r3, [r7, #16]
 8002080:	4a18      	ldr	r2, [pc, #96]	; (80020e4 <SystemCoreClockUpdate+0x144>)
 8002082:	fb02 f203 	mul.w	r2, r2, r3
 8002086:	68fb      	ldr	r3, [r7, #12]
 8002088:	fbb2 f3f3 	udiv	r3, r2, r3
 800208c:	4a14      	ldr	r2, [pc, #80]	; (80020e0 <SystemCoreClockUpdate+0x140>)
 800208e:	6013      	str	r3, [r2, #0]
      break;
 8002090:	e00f      	b.n	80020b2 <SystemCoreClockUpdate+0x112>
    default: /* MSI used as system clock */
      msirange = (RCC->ICSCR & RCC_ICSCR_MSIRANGE) >> 13;
 8002092:	4b12      	ldr	r3, [pc, #72]	; (80020dc <SystemCoreClockUpdate+0x13c>)
 8002094:	685b      	ldr	r3, [r3, #4]
 8002096:	0b5b      	lsrs	r3, r3, #13
 8002098:	f003 0307 	and.w	r3, r3, #7
 800209c:	607b      	str	r3, [r7, #4]
      SystemCoreClock = (32768 * (1 << (msirange + 1)));
 800209e:	687b      	ldr	r3, [r7, #4]
 80020a0:	3301      	adds	r3, #1
 80020a2:	f44f 4200 	mov.w	r2, #32768	; 0x8000
 80020a6:	fa02 f303 	lsl.w	r3, r2, r3
 80020aa:	461a      	mov	r2, r3
 80020ac:	4b0c      	ldr	r3, [pc, #48]	; (80020e0 <SystemCoreClockUpdate+0x140>)
 80020ae:	601a      	str	r2, [r3, #0]
      break;
 80020b0:	bf00      	nop
  }
  /* Compute HCLK clock frequency --------------------------------------------*/
  /* Get HCLK prescaler */
  tmp = AHBPrescTable[((RCC->CFGR & RCC_CFGR_HPRE) >> 4)];
 80020b2:	4b0a      	ldr	r3, [pc, #40]	; (80020dc <SystemCoreClockUpdate+0x13c>)
 80020b4:	689b      	ldr	r3, [r3, #8]
 80020b6:	091b      	lsrs	r3, r3, #4
 80020b8:	f003 030f 	and.w	r3, r3, #15
 80020bc:	4a0b      	ldr	r2, [pc, #44]	; (80020ec <SystemCoreClockUpdate+0x14c>)
 80020be:	5cd3      	ldrb	r3, [r2, r3]
 80020c0:	617b      	str	r3, [r7, #20]
  /* HCLK clock frequency */
  SystemCoreClock >>= tmp;
 80020c2:	4b07      	ldr	r3, [pc, #28]	; (80020e0 <SystemCoreClockUpdate+0x140>)
 80020c4:	681a      	ldr	r2, [r3, #0]
 80020c6:	697b      	ldr	r3, [r7, #20]
 80020c8:	fa22 f303 	lsr.w	r3, r2, r3
 80020cc:	4a04      	ldr	r2, [pc, #16]	; (80020e0 <SystemCoreClockUpdate+0x140>)
 80020ce:	6013      	str	r3, [r2, #0]
}
 80020d0:	bf00      	nop
 80020d2:	371c      	adds	r7, #28
 80020d4:	46bd      	mov	sp, r7
 80020d6:	bc80      	pop	{r7}
 80020d8:	4770      	bx	lr
 80020da:	bf00      	nop
 80020dc:	40023800 	.word	0x40023800
 80020e0:	20000000 	.word	0x20000000
 80020e4:	007a1200 	.word	0x007a1200
 80020e8:	0800548c 	.word	0x0800548c
 80020ec:	08005498 	.word	0x08005498

080020f0 <__libc_init_array>:
 80020f0:	b570      	push	{r4, r5, r6, lr}
 80020f2:	2500      	movs	r5, #0
 80020f4:	4e0c      	ldr	r6, [pc, #48]	; (8002128 <__libc_init_array+0x38>)
 80020f6:	4c0d      	ldr	r4, [pc, #52]	; (800212c <__libc_init_array+0x3c>)
 80020f8:	1ba4      	subs	r4, r4, r6
 80020fa:	10a4      	asrs	r4, r4, #2
 80020fc:	42a5      	cmp	r5, r4
 80020fe:	d109      	bne.n	8002114 <__libc_init_array+0x24>
 8002100:	f003 f91e 	bl	8005340 <_init>
 8002104:	2500      	movs	r5, #0
 8002106:	4e0a      	ldr	r6, [pc, #40]	; (8002130 <__libc_init_array+0x40>)
 8002108:	4c0a      	ldr	r4, [pc, #40]	; (8002134 <__libc_init_array+0x44>)
 800210a:	1ba4      	subs	r4, r4, r6
 800210c:	10a4      	asrs	r4, r4, #2
 800210e:	42a5      	cmp	r5, r4
 8002110:	d105      	bne.n	800211e <__libc_init_array+0x2e>
 8002112:	bd70      	pop	{r4, r5, r6, pc}
 8002114:	f856 3025 	ldr.w	r3, [r6, r5, lsl #2]
 8002118:	4798      	blx	r3
 800211a:	3501      	adds	r5, #1
 800211c:	e7ee      	b.n	80020fc <__libc_init_array+0xc>
 800211e:	f856 3025 	ldr.w	r3, [r6, r5, lsl #2]
 8002122:	4798      	blx	r3
 8002124:	3501      	adds	r5, #1
 8002126:	e7f2      	b.n	800210e <__libc_init_array+0x1e>
 8002128:	08005758 	.word	0x08005758
 800212c:	08005758 	.word	0x08005758
 8002130:	08005758 	.word	0x08005758
 8002134:	0800575c 	.word	0x0800575c

08002138 <snprintf>:
 8002138:	b40c      	push	{r2, r3}
 800213a:	b530      	push	{r4, r5, lr}
 800213c:	4b17      	ldr	r3, [pc, #92]	; (800219c <snprintf+0x64>)
 800213e:	1e0c      	subs	r4, r1, #0
 8002140:	b09d      	sub	sp, #116	; 0x74
 8002142:	681d      	ldr	r5, [r3, #0]
 8002144:	da08      	bge.n	8002158 <snprintf+0x20>
 8002146:	238b      	movs	r3, #139	; 0x8b
 8002148:	f04f 30ff 	mov.w	r0, #4294967295
 800214c:	602b      	str	r3, [r5, #0]
 800214e:	b01d      	add	sp, #116	; 0x74
 8002150:	e8bd 4030 	ldmia.w	sp!, {r4, r5, lr}
 8002154:	b002      	add	sp, #8
 8002156:	4770      	bx	lr
 8002158:	f44f 7302 	mov.w	r3, #520	; 0x208
 800215c:	f8ad 3014 	strh.w	r3, [sp, #20]
 8002160:	bf0c      	ite	eq
 8002162:	4623      	moveq	r3, r4
 8002164:	f104 33ff 	addne.w	r3, r4, #4294967295
 8002168:	9304      	str	r3, [sp, #16]
 800216a:	9307      	str	r3, [sp, #28]
 800216c:	f64f 73ff 	movw	r3, #65535	; 0xffff
 8002170:	9002      	str	r0, [sp, #8]
 8002172:	9006      	str	r0, [sp, #24]
 8002174:	f8ad 3016 	strh.w	r3, [sp, #22]
 8002178:	9a20      	ldr	r2, [sp, #128]	; 0x80
 800217a:	ab21      	add	r3, sp, #132	; 0x84
 800217c:	a902      	add	r1, sp, #8
 800217e:	4628      	mov	r0, r5
 8002180:	9301      	str	r3, [sp, #4]
 8002182:	f000 f80d 	bl	80021a0 <_svfprintf_r>
 8002186:	1c43      	adds	r3, r0, #1
 8002188:	bfbc      	itt	lt
 800218a:	238b      	movlt	r3, #139	; 0x8b
 800218c:	602b      	strlt	r3, [r5, #0]
 800218e:	2c00      	cmp	r4, #0
 8002190:	d0dd      	beq.n	800214e <snprintf+0x16>
 8002192:	2200      	movs	r2, #0
 8002194:	9b02      	ldr	r3, [sp, #8]
 8002196:	701a      	strb	r2, [r3, #0]
 8002198:	e7d9      	b.n	800214e <snprintf+0x16>
 800219a:	bf00      	nop
 800219c:	20000004 	.word	0x20000004

080021a0 <_svfprintf_r>:
 80021a0:	e92d 4ff0 	stmdb	sp!, {r4, r5, r6, r7, r8, r9, sl, fp, lr}
 80021a4:	b0bf      	sub	sp, #252	; 0xfc
 80021a6:	4689      	mov	r9, r1
 80021a8:	4615      	mov	r5, r2
 80021aa:	461f      	mov	r7, r3
 80021ac:	4682      	mov	sl, r0
 80021ae:	f001 ff39 	bl	8004024 <_localeconv_r>
 80021b2:	6803      	ldr	r3, [r0, #0]
 80021b4:	4618      	mov	r0, r3
 80021b6:	9311      	str	r3, [sp, #68]	; 0x44
 80021b8:	f7fd ffe2 	bl	8000180 <strlen>
 80021bc:	f8b9 300c 	ldrh.w	r3, [r9, #12]
 80021c0:	900a      	str	r0, [sp, #40]	; 0x28
 80021c2:	061b      	lsls	r3, r3, #24
 80021c4:	d518      	bpl.n	80021f8 <_svfprintf_r+0x58>
 80021c6:	f8d9 3010 	ldr.w	r3, [r9, #16]
 80021ca:	b9ab      	cbnz	r3, 80021f8 <_svfprintf_r+0x58>
 80021cc:	2140      	movs	r1, #64	; 0x40
 80021ce:	4650      	mov	r0, sl
 80021d0:	f001 ff3e 	bl	8004050 <_malloc_r>
 80021d4:	f8c9 0000 	str.w	r0, [r9]
 80021d8:	f8c9 0010 	str.w	r0, [r9, #16]
 80021dc:	b948      	cbnz	r0, 80021f2 <_svfprintf_r+0x52>
 80021de:	230c      	movs	r3, #12
 80021e0:	f8ca 3000 	str.w	r3, [sl]
 80021e4:	f04f 33ff 	mov.w	r3, #4294967295
 80021e8:	930b      	str	r3, [sp, #44]	; 0x2c
 80021ea:	980b      	ldr	r0, [sp, #44]	; 0x2c
 80021ec:	b03f      	add	sp, #252	; 0xfc
 80021ee:	e8bd 8ff0 	ldmia.w	sp!, {r4, r5, r6, r7, r8, r9, sl, fp, pc}
 80021f2:	2340      	movs	r3, #64	; 0x40
 80021f4:	f8c9 3014 	str.w	r3, [r9, #20]
 80021f8:	2300      	movs	r3, #0
 80021fa:	ac2e      	add	r4, sp, #184	; 0xb8
 80021fc:	9421      	str	r4, [sp, #132]	; 0x84
 80021fe:	9323      	str	r3, [sp, #140]	; 0x8c
 8002200:	9322      	str	r3, [sp, #136]	; 0x88
 8002202:	9509      	str	r5, [sp, #36]	; 0x24
 8002204:	9307      	str	r3, [sp, #28]
 8002206:	930d      	str	r3, [sp, #52]	; 0x34
 8002208:	930e      	str	r3, [sp, #56]	; 0x38
 800220a:	9315      	str	r3, [sp, #84]	; 0x54
 800220c:	9314      	str	r3, [sp, #80]	; 0x50
 800220e:	930b      	str	r3, [sp, #44]	; 0x2c
 8002210:	9312      	str	r3, [sp, #72]	; 0x48
 8002212:	9313      	str	r3, [sp, #76]	; 0x4c
 8002214:	9d09      	ldr	r5, [sp, #36]	; 0x24
 8002216:	462b      	mov	r3, r5
 8002218:	f813 2b01 	ldrb.w	r2, [r3], #1
 800221c:	b112      	cbz	r2, 8002224 <_svfprintf_r+0x84>
 800221e:	2a25      	cmp	r2, #37	; 0x25
 8002220:	f040 8083 	bne.w	800232a <_svfprintf_r+0x18a>
 8002224:	9b09      	ldr	r3, [sp, #36]	; 0x24
 8002226:	1aee      	subs	r6, r5, r3
 8002228:	d00d      	beq.n	8002246 <_svfprintf_r+0xa6>
 800222a:	e884 0048 	stmia.w	r4, {r3, r6}
 800222e:	9b23      	ldr	r3, [sp, #140]	; 0x8c
 8002230:	4433      	add	r3, r6
 8002232:	9323      	str	r3, [sp, #140]	; 0x8c
 8002234:	9b22      	ldr	r3, [sp, #136]	; 0x88
 8002236:	3301      	adds	r3, #1
 8002238:	2b07      	cmp	r3, #7
 800223a:	9322      	str	r3, [sp, #136]	; 0x88
 800223c:	dc77      	bgt.n	800232e <_svfprintf_r+0x18e>
 800223e:	3408      	adds	r4, #8
 8002240:	9b0b      	ldr	r3, [sp, #44]	; 0x2c
 8002242:	4433      	add	r3, r6
 8002244:	930b      	str	r3, [sp, #44]	; 0x2c
 8002246:	782b      	ldrb	r3, [r5, #0]
 8002248:	2b00      	cmp	r3, #0
 800224a:	f000 8725 	beq.w	8003098 <_svfprintf_r+0xef8>
 800224e:	2300      	movs	r3, #0
 8002250:	1c69      	adds	r1, r5, #1
 8002252:	461a      	mov	r2, r3
 8002254:	f04f 3bff 	mov.w	fp, #4294967295
 8002258:	461d      	mov	r5, r3
 800225a:	200a      	movs	r0, #10
 800225c:	f88d 3067 	strb.w	r3, [sp, #103]	; 0x67
 8002260:	930c      	str	r3, [sp, #48]	; 0x30
 8002262:	1c4e      	adds	r6, r1, #1
 8002264:	7809      	ldrb	r1, [r1, #0]
 8002266:	9609      	str	r6, [sp, #36]	; 0x24
 8002268:	9106      	str	r1, [sp, #24]
 800226a:	9906      	ldr	r1, [sp, #24]
 800226c:	3920      	subs	r1, #32
 800226e:	2958      	cmp	r1, #88	; 0x58
 8002270:	f200 8414 	bhi.w	8002a9c <_svfprintf_r+0x8fc>
 8002274:	e8df f011 	tbh	[pc, r1, lsl #1]
 8002278:	041200a5 	.word	0x041200a5
 800227c:	00aa0412 	.word	0x00aa0412
 8002280:	04120412 	.word	0x04120412
 8002284:	04120412 	.word	0x04120412
 8002288:	04120412 	.word	0x04120412
 800228c:	006500ad 	.word	0x006500ad
 8002290:	00b50412 	.word	0x00b50412
 8002294:	041200b8 	.word	0x041200b8
 8002298:	00d800d5 	.word	0x00d800d5
 800229c:	00d800d8 	.word	0x00d800d8
 80022a0:	00d800d8 	.word	0x00d800d8
 80022a4:	00d800d8 	.word	0x00d800d8
 80022a8:	00d800d8 	.word	0x00d800d8
 80022ac:	04120412 	.word	0x04120412
 80022b0:	04120412 	.word	0x04120412
 80022b4:	04120412 	.word	0x04120412
 80022b8:	04120412 	.word	0x04120412
 80022bc:	04120412 	.word	0x04120412
 80022c0:	0122010c 	.word	0x0122010c
 80022c4:	01220412 	.word	0x01220412
 80022c8:	04120412 	.word	0x04120412
 80022cc:	04120412 	.word	0x04120412
 80022d0:	041200eb 	.word	0x041200eb
 80022d4:	033c0412 	.word	0x033c0412
 80022d8:	04120412 	.word	0x04120412
 80022dc:	04120412 	.word	0x04120412
 80022e0:	03a40412 	.word	0x03a40412
 80022e4:	04120412 	.word	0x04120412
 80022e8:	04120085 	.word	0x04120085
 80022ec:	04120412 	.word	0x04120412
 80022f0:	04120412 	.word	0x04120412
 80022f4:	04120412 	.word	0x04120412
 80022f8:	04120412 	.word	0x04120412
 80022fc:	00fe0412 	.word	0x00fe0412
 8002300:	0122006b 	.word	0x0122006b
 8002304:	01220122 	.word	0x01220122
 8002308:	006b00ee 	.word	0x006b00ee
 800230c:	04120412 	.word	0x04120412
 8002310:	041200f1 	.word	0x041200f1
 8002314:	033e031e 	.word	0x033e031e
 8002318:	00f80372 	.word	0x00f80372
 800231c:	03830412 	.word	0x03830412
 8002320:	03a60412 	.word	0x03a60412
 8002324:	04120412 	.word	0x04120412
 8002328:	03be      	.short	0x03be
 800232a:	461d      	mov	r5, r3
 800232c:	e773      	b.n	8002216 <_svfprintf_r+0x76>
 800232e:	aa21      	add	r2, sp, #132	; 0x84
 8002330:	4649      	mov	r1, r9
 8002332:	4650      	mov	r0, sl
 8002334:	f002 fba0 	bl	8004a78 <__ssprint_r>
 8002338:	2800      	cmp	r0, #0
 800233a:	f040 868e 	bne.w	800305a <_svfprintf_r+0xeba>
 800233e:	ac2e      	add	r4, sp, #184	; 0xb8
 8002340:	e77e      	b.n	8002240 <_svfprintf_r+0xa0>
 8002342:	2301      	movs	r3, #1
 8002344:	222b      	movs	r2, #43	; 0x2b
 8002346:	9909      	ldr	r1, [sp, #36]	; 0x24
 8002348:	e78b      	b.n	8002262 <_svfprintf_r+0xc2>
 800234a:	460f      	mov	r7, r1
 800234c:	e7fb      	b.n	8002346 <_svfprintf_r+0x1a6>
 800234e:	b10b      	cbz	r3, 8002354 <_svfprintf_r+0x1b4>
 8002350:	f88d 2067 	strb.w	r2, [sp, #103]	; 0x67
 8002354:	06ae      	lsls	r6, r5, #26
 8002356:	f140 80a1 	bpl.w	800249c <_svfprintf_r+0x2fc>
 800235a:	3707      	adds	r7, #7
 800235c:	f027 0707 	bic.w	r7, r7, #7
 8002360:	f107 0308 	add.w	r3, r7, #8
 8002364:	9308      	str	r3, [sp, #32]
 8002366:	e9d7 6700 	ldrd	r6, r7, [r7]
 800236a:	2e00      	cmp	r6, #0
 800236c:	f177 0300 	sbcs.w	r3, r7, #0
 8002370:	da05      	bge.n	800237e <_svfprintf_r+0x1de>
 8002372:	232d      	movs	r3, #45	; 0x2d
 8002374:	4276      	negs	r6, r6
 8002376:	eb67 0747 	sbc.w	r7, r7, r7, lsl #1
 800237a:	f88d 3067 	strb.w	r3, [sp, #103]	; 0x67
 800237e:	2301      	movs	r3, #1
 8002380:	e2c7      	b.n	8002912 <_svfprintf_r+0x772>
 8002382:	b10b      	cbz	r3, 8002388 <_svfprintf_r+0x1e8>
 8002384:	f88d 2067 	strb.w	r2, [sp, #103]	; 0x67
 8002388:	4ba0      	ldr	r3, [pc, #640]	; (800260c <_svfprintf_r+0x46c>)
 800238a:	9315      	str	r3, [sp, #84]	; 0x54
 800238c:	06ab      	lsls	r3, r5, #26
 800238e:	f140 8336 	bpl.w	80029fe <_svfprintf_r+0x85e>
 8002392:	3707      	adds	r7, #7
 8002394:	f027 0707 	bic.w	r7, r7, #7
 8002398:	f107 0308 	add.w	r3, r7, #8
 800239c:	9308      	str	r3, [sp, #32]
 800239e:	e9d7 6700 	ldrd	r6, r7, [r7]
 80023a2:	07e8      	lsls	r0, r5, #31
 80023a4:	d50b      	bpl.n	80023be <_svfprintf_r+0x21e>
 80023a6:	ea56 0307 	orrs.w	r3, r6, r7
 80023aa:	d008      	beq.n	80023be <_svfprintf_r+0x21e>
 80023ac:	2330      	movs	r3, #48	; 0x30
 80023ae:	f88d 3068 	strb.w	r3, [sp, #104]	; 0x68
 80023b2:	f89d 3018 	ldrb.w	r3, [sp, #24]
 80023b6:	f045 0502 	orr.w	r5, r5, #2
 80023ba:	f88d 3069 	strb.w	r3, [sp, #105]	; 0x69
 80023be:	2302      	movs	r3, #2
 80023c0:	e2a4      	b.n	800290c <_svfprintf_r+0x76c>
 80023c2:	2a00      	cmp	r2, #0
 80023c4:	d1bf      	bne.n	8002346 <_svfprintf_r+0x1a6>
 80023c6:	2301      	movs	r3, #1
 80023c8:	2220      	movs	r2, #32
 80023ca:	e7bc      	b.n	8002346 <_svfprintf_r+0x1a6>
 80023cc:	f045 0501 	orr.w	r5, r5, #1
 80023d0:	e7b9      	b.n	8002346 <_svfprintf_r+0x1a6>
 80023d2:	683e      	ldr	r6, [r7, #0]
 80023d4:	1d39      	adds	r1, r7, #4
 80023d6:	2e00      	cmp	r6, #0
 80023d8:	960c      	str	r6, [sp, #48]	; 0x30
 80023da:	dab6      	bge.n	800234a <_svfprintf_r+0x1aa>
 80023dc:	460f      	mov	r7, r1
 80023de:	4276      	negs	r6, r6
 80023e0:	960c      	str	r6, [sp, #48]	; 0x30
 80023e2:	f045 0504 	orr.w	r5, r5, #4
 80023e6:	e7ae      	b.n	8002346 <_svfprintf_r+0x1a6>
 80023e8:	9909      	ldr	r1, [sp, #36]	; 0x24
 80023ea:	1c4e      	adds	r6, r1, #1
 80023ec:	7809      	ldrb	r1, [r1, #0]
 80023ee:	292a      	cmp	r1, #42	; 0x2a
 80023f0:	9106      	str	r1, [sp, #24]
 80023f2:	d010      	beq.n	8002416 <_svfprintf_r+0x276>
 80023f4:	f04f 0b00 	mov.w	fp, #0
 80023f8:	9609      	str	r6, [sp, #36]	; 0x24
 80023fa:	9906      	ldr	r1, [sp, #24]
 80023fc:	3930      	subs	r1, #48	; 0x30
 80023fe:	2909      	cmp	r1, #9
 8002400:	f63f af33 	bhi.w	800226a <_svfprintf_r+0xca>
 8002404:	fb00 1b0b 	mla	fp, r0, fp, r1
 8002408:	9909      	ldr	r1, [sp, #36]	; 0x24
 800240a:	460e      	mov	r6, r1
 800240c:	f816 1b01 	ldrb.w	r1, [r6], #1
 8002410:	9106      	str	r1, [sp, #24]
 8002412:	9609      	str	r6, [sp, #36]	; 0x24
 8002414:	e7f1      	b.n	80023fa <_svfprintf_r+0x25a>
 8002416:	6839      	ldr	r1, [r7, #0]
 8002418:	9609      	str	r6, [sp, #36]	; 0x24
 800241a:	ea41 7be1 	orr.w	fp, r1, r1, asr #31
 800241e:	3704      	adds	r7, #4
 8002420:	e791      	b.n	8002346 <_svfprintf_r+0x1a6>
 8002422:	f045 0580 	orr.w	r5, r5, #128	; 0x80
 8002426:	e78e      	b.n	8002346 <_svfprintf_r+0x1a6>
 8002428:	2100      	movs	r1, #0
 800242a:	910c      	str	r1, [sp, #48]	; 0x30
 800242c:	9906      	ldr	r1, [sp, #24]
 800242e:	9e0c      	ldr	r6, [sp, #48]	; 0x30
 8002430:	3930      	subs	r1, #48	; 0x30
 8002432:	fb00 1106 	mla	r1, r0, r6, r1
 8002436:	910c      	str	r1, [sp, #48]	; 0x30
 8002438:	9909      	ldr	r1, [sp, #36]	; 0x24
 800243a:	460e      	mov	r6, r1
 800243c:	f816 1b01 	ldrb.w	r1, [r6], #1
 8002440:	9106      	str	r1, [sp, #24]
 8002442:	9906      	ldr	r1, [sp, #24]
 8002444:	9609      	str	r6, [sp, #36]	; 0x24
 8002446:	3930      	subs	r1, #48	; 0x30
 8002448:	2909      	cmp	r1, #9
 800244a:	d9ef      	bls.n	800242c <_svfprintf_r+0x28c>
 800244c:	e70d      	b.n	800226a <_svfprintf_r+0xca>
 800244e:	f045 0508 	orr.w	r5, r5, #8
 8002452:	e778      	b.n	8002346 <_svfprintf_r+0x1a6>
 8002454:	f045 0540 	orr.w	r5, r5, #64	; 0x40
 8002458:	e775      	b.n	8002346 <_svfprintf_r+0x1a6>
 800245a:	9909      	ldr	r1, [sp, #36]	; 0x24
 800245c:	7809      	ldrb	r1, [r1, #0]
 800245e:	296c      	cmp	r1, #108	; 0x6c
 8002460:	d105      	bne.n	800246e <_svfprintf_r+0x2ce>
 8002462:	9909      	ldr	r1, [sp, #36]	; 0x24
 8002464:	3101      	adds	r1, #1
 8002466:	9109      	str	r1, [sp, #36]	; 0x24
 8002468:	f045 0520 	orr.w	r5, r5, #32
 800246c:	e76b      	b.n	8002346 <_svfprintf_r+0x1a6>
 800246e:	f045 0510 	orr.w	r5, r5, #16
 8002472:	e768      	b.n	8002346 <_svfprintf_r+0x1a6>
 8002474:	2600      	movs	r6, #0
 8002476:	1d3b      	adds	r3, r7, #4
 8002478:	9308      	str	r3, [sp, #32]
 800247a:	683b      	ldr	r3, [r7, #0]
 800247c:	f88d 6067 	strb.w	r6, [sp, #103]	; 0x67
 8002480:	f88d 3090 	strb.w	r3, [sp, #144]	; 0x90
 8002484:	f04f 0b01 	mov.w	fp, #1
 8002488:	4637      	mov	r7, r6
 800248a:	f10d 0890 	add.w	r8, sp, #144	; 0x90
 800248e:	e11c      	b.n	80026ca <_svfprintf_r+0x52a>
 8002490:	b10b      	cbz	r3, 8002496 <_svfprintf_r+0x2f6>
 8002492:	f88d 2067 	strb.w	r2, [sp, #103]	; 0x67
 8002496:	f045 0510 	orr.w	r5, r5, #16
 800249a:	e75b      	b.n	8002354 <_svfprintf_r+0x1b4>
 800249c:	f015 0f10 	tst.w	r5, #16
 80024a0:	f107 0304 	add.w	r3, r7, #4
 80024a4:	d003      	beq.n	80024ae <_svfprintf_r+0x30e>
 80024a6:	683e      	ldr	r6, [r7, #0]
 80024a8:	9308      	str	r3, [sp, #32]
 80024aa:	17f7      	asrs	r7, r6, #31
 80024ac:	e75d      	b.n	800236a <_svfprintf_r+0x1ca>
 80024ae:	683e      	ldr	r6, [r7, #0]
 80024b0:	f015 0f40 	tst.w	r5, #64	; 0x40
 80024b4:	9308      	str	r3, [sp, #32]
 80024b6:	bf18      	it	ne
 80024b8:	b236      	sxthne	r6, r6
 80024ba:	e7f6      	b.n	80024aa <_svfprintf_r+0x30a>
 80024bc:	b10b      	cbz	r3, 80024c2 <_svfprintf_r+0x322>
 80024be:	f88d 2067 	strb.w	r2, [sp, #103]	; 0x67
 80024c2:	3707      	adds	r7, #7
 80024c4:	f027 0707 	bic.w	r7, r7, #7
 80024c8:	f107 0308 	add.w	r3, r7, #8
 80024cc:	9308      	str	r3, [sp, #32]
 80024ce:	683b      	ldr	r3, [r7, #0]
 80024d0:	f04f 32ff 	mov.w	r2, #4294967295
 80024d4:	930d      	str	r3, [sp, #52]	; 0x34
 80024d6:	687b      	ldr	r3, [r7, #4]
 80024d8:	9f0d      	ldr	r7, [sp, #52]	; 0x34
 80024da:	930e      	str	r3, [sp, #56]	; 0x38
 80024dc:	9b0e      	ldr	r3, [sp, #56]	; 0x38
 80024de:	4638      	mov	r0, r7
 80024e0:	f023 4600 	bic.w	r6, r3, #2147483648	; 0x80000000
 80024e4:	4631      	mov	r1, r6
 80024e6:	4b4a      	ldr	r3, [pc, #296]	; (8002610 <_svfprintf_r+0x470>)
 80024e8:	f7fe faa4 	bl	8000a34 <__aeabi_dcmpun>
 80024ec:	2800      	cmp	r0, #0
 80024ee:	f040 85dc 	bne.w	80030aa <_svfprintf_r+0xf0a>
 80024f2:	f04f 32ff 	mov.w	r2, #4294967295
 80024f6:	4b46      	ldr	r3, [pc, #280]	; (8002610 <_svfprintf_r+0x470>)
 80024f8:	4638      	mov	r0, r7
 80024fa:	4631      	mov	r1, r6
 80024fc:	f7fe fa7c 	bl	80009f8 <__aeabi_dcmple>
 8002500:	2800      	cmp	r0, #0
 8002502:	f040 85d2 	bne.w	80030aa <_svfprintf_r+0xf0a>
 8002506:	9a12      	ldr	r2, [sp, #72]	; 0x48
 8002508:	9b13      	ldr	r3, [sp, #76]	; 0x4c
 800250a:	980d      	ldr	r0, [sp, #52]	; 0x34
 800250c:	990e      	ldr	r1, [sp, #56]	; 0x38
 800250e:	f7fe fa69 	bl	80009e4 <__aeabi_dcmplt>
 8002512:	b110      	cbz	r0, 800251a <_svfprintf_r+0x37a>
 8002514:	232d      	movs	r3, #45	; 0x2d
 8002516:	f88d 3067 	strb.w	r3, [sp, #103]	; 0x67
 800251a:	4b3e      	ldr	r3, [pc, #248]	; (8002614 <_svfprintf_r+0x474>)
 800251c:	4a3e      	ldr	r2, [pc, #248]	; (8002618 <_svfprintf_r+0x478>)
 800251e:	9906      	ldr	r1, [sp, #24]
 8002520:	f04f 0b03 	mov.w	fp, #3
 8002524:	2947      	cmp	r1, #71	; 0x47
 8002526:	bfcc      	ite	gt
 8002528:	4690      	movgt	r8, r2
 800252a:	4698      	movle	r8, r3
 800252c:	2600      	movs	r6, #0
 800252e:	f025 0580 	bic.w	r5, r5, #128	; 0x80
 8002532:	4637      	mov	r7, r6
 8002534:	e0c9      	b.n	80026ca <_svfprintf_r+0x52a>
 8002536:	f1bb 3fff 	cmp.w	fp, #4294967295
 800253a:	d026      	beq.n	800258a <_svfprintf_r+0x3ea>
 800253c:	9b06      	ldr	r3, [sp, #24]
 800253e:	f023 0320 	bic.w	r3, r3, #32
 8002542:	2b47      	cmp	r3, #71	; 0x47
 8002544:	d104      	bne.n	8002550 <_svfprintf_r+0x3b0>
 8002546:	f1bb 0f00 	cmp.w	fp, #0
 800254a:	bf08      	it	eq
 800254c:	f04f 0b01 	moveq.w	fp, #1
 8002550:	f445 7380 	orr.w	r3, r5, #256	; 0x100
 8002554:	9317      	str	r3, [sp, #92]	; 0x5c
 8002556:	9b0e      	ldr	r3, [sp, #56]	; 0x38
 8002558:	1e1f      	subs	r7, r3, #0
 800255a:	9b0d      	ldr	r3, [sp, #52]	; 0x34
 800255c:	bfa8      	it	ge
 800255e:	9710      	strge	r7, [sp, #64]	; 0x40
 8002560:	930f      	str	r3, [sp, #60]	; 0x3c
 8002562:	bfbd      	ittte	lt
 8002564:	463b      	movlt	r3, r7
 8002566:	f103 4300 	addlt.w	r3, r3, #2147483648	; 0x80000000
 800256a:	9310      	strlt	r3, [sp, #64]	; 0x40
 800256c:	2300      	movge	r3, #0
 800256e:	bfb8      	it	lt
 8002570:	232d      	movlt	r3, #45	; 0x2d
 8002572:	9316      	str	r3, [sp, #88]	; 0x58
 8002574:	9b06      	ldr	r3, [sp, #24]
 8002576:	f023 0720 	bic.w	r7, r3, #32
 800257a:	2f46      	cmp	r7, #70	; 0x46
 800257c:	d008      	beq.n	8002590 <_svfprintf_r+0x3f0>
 800257e:	2f45      	cmp	r7, #69	; 0x45
 8002580:	d142      	bne.n	8002608 <_svfprintf_r+0x468>
 8002582:	f10b 0601 	add.w	r6, fp, #1
 8002586:	2302      	movs	r3, #2
 8002588:	e004      	b.n	8002594 <_svfprintf_r+0x3f4>
 800258a:	f04f 0b06 	mov.w	fp, #6
 800258e:	e7df      	b.n	8002550 <_svfprintf_r+0x3b0>
 8002590:	465e      	mov	r6, fp
 8002592:	2303      	movs	r3, #3
 8002594:	aa1f      	add	r2, sp, #124	; 0x7c
 8002596:	9204      	str	r2, [sp, #16]
 8002598:	aa1c      	add	r2, sp, #112	; 0x70
 800259a:	9203      	str	r2, [sp, #12]
 800259c:	aa1b      	add	r2, sp, #108	; 0x6c
 800259e:	9202      	str	r2, [sp, #8]
 80025a0:	e88d 0048 	stmia.w	sp, {r3, r6}
 80025a4:	9a0f      	ldr	r2, [sp, #60]	; 0x3c
 80025a6:	9b10      	ldr	r3, [sp, #64]	; 0x40
 80025a8:	4650      	mov	r0, sl
 80025aa:	f000 fe55 	bl	8003258 <_dtoa_r>
 80025ae:	2f47      	cmp	r7, #71	; 0x47
 80025b0:	4680      	mov	r8, r0
 80025b2:	d102      	bne.n	80025ba <_svfprintf_r+0x41a>
 80025b4:	07e8      	lsls	r0, r5, #31
 80025b6:	f140 8585 	bpl.w	80030c4 <_svfprintf_r+0xf24>
 80025ba:	eb08 0306 	add.w	r3, r8, r6
 80025be:	2f46      	cmp	r7, #70	; 0x46
 80025c0:	9307      	str	r3, [sp, #28]
 80025c2:	d111      	bne.n	80025e8 <_svfprintf_r+0x448>
 80025c4:	f898 3000 	ldrb.w	r3, [r8]
 80025c8:	2b30      	cmp	r3, #48	; 0x30
 80025ca:	d109      	bne.n	80025e0 <_svfprintf_r+0x440>
 80025cc:	9a12      	ldr	r2, [sp, #72]	; 0x48
 80025ce:	9b13      	ldr	r3, [sp, #76]	; 0x4c
 80025d0:	980f      	ldr	r0, [sp, #60]	; 0x3c
 80025d2:	9910      	ldr	r1, [sp, #64]	; 0x40
 80025d4:	f7fe f9fc 	bl	80009d0 <__aeabi_dcmpeq>
 80025d8:	b910      	cbnz	r0, 80025e0 <_svfprintf_r+0x440>
 80025da:	f1c6 0601 	rsb	r6, r6, #1
 80025de:	961b      	str	r6, [sp, #108]	; 0x6c
 80025e0:	9a07      	ldr	r2, [sp, #28]
 80025e2:	9b1b      	ldr	r3, [sp, #108]	; 0x6c
 80025e4:	441a      	add	r2, r3
 80025e6:	9207      	str	r2, [sp, #28]
 80025e8:	9a12      	ldr	r2, [sp, #72]	; 0x48
 80025ea:	9b13      	ldr	r3, [sp, #76]	; 0x4c
 80025ec:	980f      	ldr	r0, [sp, #60]	; 0x3c
 80025ee:	9910      	ldr	r1, [sp, #64]	; 0x40
 80025f0:	f7fe f9ee 	bl	80009d0 <__aeabi_dcmpeq>
 80025f4:	b990      	cbnz	r0, 800261c <_svfprintf_r+0x47c>
 80025f6:	2230      	movs	r2, #48	; 0x30
 80025f8:	9b1f      	ldr	r3, [sp, #124]	; 0x7c
 80025fa:	9907      	ldr	r1, [sp, #28]
 80025fc:	4299      	cmp	r1, r3
 80025fe:	d90f      	bls.n	8002620 <_svfprintf_r+0x480>
 8002600:	1c59      	adds	r1, r3, #1
 8002602:	911f      	str	r1, [sp, #124]	; 0x7c
 8002604:	701a      	strb	r2, [r3, #0]
 8002606:	e7f7      	b.n	80025f8 <_svfprintf_r+0x458>
 8002608:	465e      	mov	r6, fp
 800260a:	e7bc      	b.n	8002586 <_svfprintf_r+0x3e6>
 800260c:	080054b8 	.word	0x080054b8
 8002610:	7fefffff 	.word	0x7fefffff
 8002614:	080054a8 	.word	0x080054a8
 8002618:	080054ac 	.word	0x080054ac
 800261c:	9b07      	ldr	r3, [sp, #28]
 800261e:	931f      	str	r3, [sp, #124]	; 0x7c
 8002620:	9b1f      	ldr	r3, [sp, #124]	; 0x7c
 8002622:	2f47      	cmp	r7, #71	; 0x47
 8002624:	eba3 0308 	sub.w	r3, r3, r8
 8002628:	9307      	str	r3, [sp, #28]
 800262a:	f040 8100 	bne.w	800282e <_svfprintf_r+0x68e>
 800262e:	9b1b      	ldr	r3, [sp, #108]	; 0x6c
 8002630:	1cd9      	adds	r1, r3, #3
 8002632:	db02      	blt.n	800263a <_svfprintf_r+0x49a>
 8002634:	459b      	cmp	fp, r3
 8002636:	f280 8126 	bge.w	8002886 <_svfprintf_r+0x6e6>
 800263a:	9b06      	ldr	r3, [sp, #24]
 800263c:	3b02      	subs	r3, #2
 800263e:	9306      	str	r3, [sp, #24]
 8002640:	9a1b      	ldr	r2, [sp, #108]	; 0x6c
 8002642:	f89d 1018 	ldrb.w	r1, [sp, #24]
 8002646:	1e53      	subs	r3, r2, #1
 8002648:	2b00      	cmp	r3, #0
 800264a:	bfa8      	it	ge
 800264c:	222b      	movge	r2, #43	; 0x2b
 800264e:	931b      	str	r3, [sp, #108]	; 0x6c
 8002650:	bfbc      	itt	lt
 8002652:	f1c2 0301 	rsblt	r3, r2, #1
 8002656:	222d      	movlt	r2, #45	; 0x2d
 8002658:	2b09      	cmp	r3, #9
 800265a:	f88d 1074 	strb.w	r1, [sp, #116]	; 0x74
 800265e:	f88d 2075 	strb.w	r2, [sp, #117]	; 0x75
 8002662:	f340 8100 	ble.w	8002866 <_svfprintf_r+0x6c6>
 8002666:	260a      	movs	r6, #10
 8002668:	f10d 0283 	add.w	r2, sp, #131	; 0x83
 800266c:	fb93 f0f6 	sdiv	r0, r3, r6
 8002670:	fb06 3310 	mls	r3, r6, r0, r3
 8002674:	2809      	cmp	r0, #9
 8002676:	f103 0330 	add.w	r3, r3, #48	; 0x30
 800267a:	f802 3c01 	strb.w	r3, [r2, #-1]
 800267e:	f102 31ff 	add.w	r1, r2, #4294967295
 8002682:	4603      	mov	r3, r0
 8002684:	f300 80e8 	bgt.w	8002858 <_svfprintf_r+0x6b8>
 8002688:	3330      	adds	r3, #48	; 0x30
 800268a:	f801 3c01 	strb.w	r3, [r1, #-1]
 800268e:	3a02      	subs	r2, #2
 8002690:	f10d 0376 	add.w	r3, sp, #118	; 0x76
 8002694:	f10d 0083 	add.w	r0, sp, #131	; 0x83
 8002698:	4282      	cmp	r2, r0
 800269a:	4619      	mov	r1, r3
 800269c:	f0c0 80de 	bcc.w	800285c <_svfprintf_r+0x6bc>
 80026a0:	9a07      	ldr	r2, [sp, #28]
 80026a2:	ab1d      	add	r3, sp, #116	; 0x74
 80026a4:	1acb      	subs	r3, r1, r3
 80026a6:	2a01      	cmp	r2, #1
 80026a8:	9314      	str	r3, [sp, #80]	; 0x50
 80026aa:	eb03 0b02 	add.w	fp, r3, r2
 80026ae:	dc02      	bgt.n	80026b6 <_svfprintf_r+0x516>
 80026b0:	f015 0701 	ands.w	r7, r5, #1
 80026b4:	d002      	beq.n	80026bc <_svfprintf_r+0x51c>
 80026b6:	2700      	movs	r7, #0
 80026b8:	9b0a      	ldr	r3, [sp, #40]	; 0x28
 80026ba:	449b      	add	fp, r3
 80026bc:	9b16      	ldr	r3, [sp, #88]	; 0x58
 80026be:	b113      	cbz	r3, 80026c6 <_svfprintf_r+0x526>
 80026c0:	232d      	movs	r3, #45	; 0x2d
 80026c2:	f88d 3067 	strb.w	r3, [sp, #103]	; 0x67
 80026c6:	2600      	movs	r6, #0
 80026c8:	9d17      	ldr	r5, [sp, #92]	; 0x5c
 80026ca:	455e      	cmp	r6, fp
 80026cc:	4633      	mov	r3, r6
 80026ce:	bfb8      	it	lt
 80026d0:	465b      	movlt	r3, fp
 80026d2:	930f      	str	r3, [sp, #60]	; 0x3c
 80026d4:	f89d 3067 	ldrb.w	r3, [sp, #103]	; 0x67
 80026d8:	b113      	cbz	r3, 80026e0 <_svfprintf_r+0x540>
 80026da:	9b0f      	ldr	r3, [sp, #60]	; 0x3c
 80026dc:	3301      	adds	r3, #1
 80026de:	930f      	str	r3, [sp, #60]	; 0x3c
 80026e0:	f015 0302 	ands.w	r3, r5, #2
 80026e4:	9316      	str	r3, [sp, #88]	; 0x58
 80026e6:	bf1e      	ittt	ne
 80026e8:	9b0f      	ldrne	r3, [sp, #60]	; 0x3c
 80026ea:	3302      	addne	r3, #2
 80026ec:	930f      	strne	r3, [sp, #60]	; 0x3c
 80026ee:	f015 0384 	ands.w	r3, r5, #132	; 0x84
 80026f2:	9317      	str	r3, [sp, #92]	; 0x5c
 80026f4:	d118      	bne.n	8002728 <_svfprintf_r+0x588>
 80026f6:	9b0c      	ldr	r3, [sp, #48]	; 0x30
 80026f8:	9a0f      	ldr	r2, [sp, #60]	; 0x3c
 80026fa:	1a9b      	subs	r3, r3, r2
 80026fc:	2b00      	cmp	r3, #0
 80026fe:	9310      	str	r3, [sp, #64]	; 0x40
 8002700:	dd12      	ble.n	8002728 <_svfprintf_r+0x588>
 8002702:	9b10      	ldr	r3, [sp, #64]	; 0x40
 8002704:	2b10      	cmp	r3, #16
 8002706:	4bab      	ldr	r3, [pc, #684]	; (80029b4 <_svfprintf_r+0x814>)
 8002708:	6023      	str	r3, [r4, #0]
 800270a:	f300 81d9 	bgt.w	8002ac0 <_svfprintf_r+0x920>
 800270e:	9b10      	ldr	r3, [sp, #64]	; 0x40
 8002710:	9a10      	ldr	r2, [sp, #64]	; 0x40
 8002712:	6063      	str	r3, [r4, #4]
 8002714:	9b23      	ldr	r3, [sp, #140]	; 0x8c
 8002716:	4413      	add	r3, r2
 8002718:	9323      	str	r3, [sp, #140]	; 0x8c
 800271a:	9b22      	ldr	r3, [sp, #136]	; 0x88
 800271c:	3301      	adds	r3, #1
 800271e:	2b07      	cmp	r3, #7
 8002720:	9322      	str	r3, [sp, #136]	; 0x88
 8002722:	f300 81e6 	bgt.w	8002af2 <_svfprintf_r+0x952>
 8002726:	3408      	adds	r4, #8
 8002728:	f89d 3067 	ldrb.w	r3, [sp, #103]	; 0x67
 800272c:	b173      	cbz	r3, 800274c <_svfprintf_r+0x5ac>
 800272e:	f10d 0367 	add.w	r3, sp, #103	; 0x67
 8002732:	6023      	str	r3, [r4, #0]
 8002734:	2301      	movs	r3, #1
 8002736:	6063      	str	r3, [r4, #4]
 8002738:	9b23      	ldr	r3, [sp, #140]	; 0x8c
 800273a:	3301      	adds	r3, #1
 800273c:	9323      	str	r3, [sp, #140]	; 0x8c
 800273e:	9b22      	ldr	r3, [sp, #136]	; 0x88
 8002740:	3301      	adds	r3, #1
 8002742:	2b07      	cmp	r3, #7
 8002744:	9322      	str	r3, [sp, #136]	; 0x88
 8002746:	f300 81de 	bgt.w	8002b06 <_svfprintf_r+0x966>
 800274a:	3408      	adds	r4, #8
 800274c:	9b16      	ldr	r3, [sp, #88]	; 0x58
 800274e:	b16b      	cbz	r3, 800276c <_svfprintf_r+0x5cc>
 8002750:	ab1a      	add	r3, sp, #104	; 0x68
 8002752:	6023      	str	r3, [r4, #0]
 8002754:	2302      	movs	r3, #2
 8002756:	6063      	str	r3, [r4, #4]
 8002758:	9b23      	ldr	r3, [sp, #140]	; 0x8c
 800275a:	3302      	adds	r3, #2
 800275c:	9323      	str	r3, [sp, #140]	; 0x8c
 800275e:	9b22      	ldr	r3, [sp, #136]	; 0x88
 8002760:	3301      	adds	r3, #1
 8002762:	2b07      	cmp	r3, #7
 8002764:	9322      	str	r3, [sp, #136]	; 0x88
 8002766:	f300 81d8 	bgt.w	8002b1a <_svfprintf_r+0x97a>
 800276a:	3408      	adds	r4, #8
 800276c:	9b17      	ldr	r3, [sp, #92]	; 0x5c
 800276e:	2b80      	cmp	r3, #128	; 0x80
 8002770:	d118      	bne.n	80027a4 <_svfprintf_r+0x604>
 8002772:	9b0c      	ldr	r3, [sp, #48]	; 0x30
 8002774:	9a0f      	ldr	r2, [sp, #60]	; 0x3c
 8002776:	1a9b      	subs	r3, r3, r2
 8002778:	2b00      	cmp	r3, #0
 800277a:	9310      	str	r3, [sp, #64]	; 0x40
 800277c:	dd12      	ble.n	80027a4 <_svfprintf_r+0x604>
 800277e:	9b10      	ldr	r3, [sp, #64]	; 0x40
 8002780:	2b10      	cmp	r3, #16
 8002782:	4b8d      	ldr	r3, [pc, #564]	; (80029b8 <_svfprintf_r+0x818>)
 8002784:	6023      	str	r3, [r4, #0]
 8002786:	f300 81d2 	bgt.w	8002b2e <_svfprintf_r+0x98e>
 800278a:	9b10      	ldr	r3, [sp, #64]	; 0x40
 800278c:	9a10      	ldr	r2, [sp, #64]	; 0x40
 800278e:	6063      	str	r3, [r4, #4]
 8002790:	9b23      	ldr	r3, [sp, #140]	; 0x8c
 8002792:	4413      	add	r3, r2
 8002794:	9323      	str	r3, [sp, #140]	; 0x8c
 8002796:	9b22      	ldr	r3, [sp, #136]	; 0x88
 8002798:	3301      	adds	r3, #1
 800279a:	2b07      	cmp	r3, #7
 800279c:	9322      	str	r3, [sp, #136]	; 0x88
 800279e:	f300 81df 	bgt.w	8002b60 <_svfprintf_r+0x9c0>
 80027a2:	3408      	adds	r4, #8
 80027a4:	eba6 060b 	sub.w	r6, r6, fp
 80027a8:	2e00      	cmp	r6, #0
 80027aa:	dd0f      	ble.n	80027cc <_svfprintf_r+0x62c>
 80027ac:	4b82      	ldr	r3, [pc, #520]	; (80029b8 <_svfprintf_r+0x818>)
 80027ae:	2e10      	cmp	r6, #16
 80027b0:	6023      	str	r3, [r4, #0]
 80027b2:	f300 81df 	bgt.w	8002b74 <_svfprintf_r+0x9d4>
 80027b6:	9b22      	ldr	r3, [sp, #136]	; 0x88
 80027b8:	9823      	ldr	r0, [sp, #140]	; 0x8c
 80027ba:	3301      	adds	r3, #1
 80027bc:	6066      	str	r6, [r4, #4]
 80027be:	2b07      	cmp	r3, #7
 80027c0:	4406      	add	r6, r0
 80027c2:	9623      	str	r6, [sp, #140]	; 0x8c
 80027c4:	9322      	str	r3, [sp, #136]	; 0x88
 80027c6:	f300 81ec 	bgt.w	8002ba2 <_svfprintf_r+0xa02>
 80027ca:	3408      	adds	r4, #8
 80027cc:	05eb      	lsls	r3, r5, #23
 80027ce:	f100 81f2 	bmi.w	8002bb6 <_svfprintf_r+0xa16>
 80027d2:	9b23      	ldr	r3, [sp, #140]	; 0x8c
 80027d4:	e884 0900 	stmia.w	r4, {r8, fp}
 80027d8:	445b      	add	r3, fp
 80027da:	9323      	str	r3, [sp, #140]	; 0x8c
 80027dc:	9b22      	ldr	r3, [sp, #136]	; 0x88
 80027de:	3301      	adds	r3, #1
 80027e0:	2b07      	cmp	r3, #7
 80027e2:	9322      	str	r3, [sp, #136]	; 0x88
 80027e4:	f340 8419 	ble.w	800301a <_svfprintf_r+0xe7a>
 80027e8:	aa21      	add	r2, sp, #132	; 0x84
 80027ea:	4649      	mov	r1, r9
 80027ec:	4650      	mov	r0, sl
 80027ee:	f002 f943 	bl	8004a78 <__ssprint_r>
 80027f2:	2800      	cmp	r0, #0
 80027f4:	f040 8431 	bne.w	800305a <_svfprintf_r+0xeba>
 80027f8:	ac2e      	add	r4, sp, #184	; 0xb8
 80027fa:	076b      	lsls	r3, r5, #29
 80027fc:	f100 8410 	bmi.w	8003020 <_svfprintf_r+0xe80>
 8002800:	9b0b      	ldr	r3, [sp, #44]	; 0x2c
 8002802:	9a0c      	ldr	r2, [sp, #48]	; 0x30
 8002804:	990f      	ldr	r1, [sp, #60]	; 0x3c
 8002806:	428a      	cmp	r2, r1
 8002808:	bfac      	ite	ge
 800280a:	189b      	addge	r3, r3, r2
 800280c:	185b      	addlt	r3, r3, r1
 800280e:	930b      	str	r3, [sp, #44]	; 0x2c
 8002810:	9b23      	ldr	r3, [sp, #140]	; 0x8c
 8002812:	b13b      	cbz	r3, 8002824 <_svfprintf_r+0x684>
 8002814:	aa21      	add	r2, sp, #132	; 0x84
 8002816:	4649      	mov	r1, r9
 8002818:	4650      	mov	r0, sl
 800281a:	f002 f92d 	bl	8004a78 <__ssprint_r>
 800281e:	2800      	cmp	r0, #0
 8002820:	f040 841b 	bne.w	800305a <_svfprintf_r+0xeba>
 8002824:	2300      	movs	r3, #0
 8002826:	9f08      	ldr	r7, [sp, #32]
 8002828:	9322      	str	r3, [sp, #136]	; 0x88
 800282a:	ac2e      	add	r4, sp, #184	; 0xb8
 800282c:	e4f2      	b.n	8002214 <_svfprintf_r+0x74>
 800282e:	9b06      	ldr	r3, [sp, #24]
 8002830:	2b65      	cmp	r3, #101	; 0x65
 8002832:	f77f af05 	ble.w	8002640 <_svfprintf_r+0x4a0>
 8002836:	9b06      	ldr	r3, [sp, #24]
 8002838:	2b66      	cmp	r3, #102	; 0x66
 800283a:	d124      	bne.n	8002886 <_svfprintf_r+0x6e6>
 800283c:	9b1b      	ldr	r3, [sp, #108]	; 0x6c
 800283e:	2b00      	cmp	r3, #0
 8002840:	dd19      	ble.n	8002876 <_svfprintf_r+0x6d6>
 8002842:	f1bb 0f00 	cmp.w	fp, #0
 8002846:	d101      	bne.n	800284c <_svfprintf_r+0x6ac>
 8002848:	07ea      	lsls	r2, r5, #31
 800284a:	d502      	bpl.n	8002852 <_svfprintf_r+0x6b2>
 800284c:	9a0a      	ldr	r2, [sp, #40]	; 0x28
 800284e:	4413      	add	r3, r2
 8002850:	445b      	add	r3, fp
 8002852:	9f1b      	ldr	r7, [sp, #108]	; 0x6c
 8002854:	469b      	mov	fp, r3
 8002856:	e731      	b.n	80026bc <_svfprintf_r+0x51c>
 8002858:	460a      	mov	r2, r1
 800285a:	e707      	b.n	800266c <_svfprintf_r+0x4cc>
 800285c:	f812 1b01 	ldrb.w	r1, [r2], #1
 8002860:	f803 1b01 	strb.w	r1, [r3], #1
 8002864:	e718      	b.n	8002698 <_svfprintf_r+0x4f8>
 8002866:	2230      	movs	r2, #48	; 0x30
 8002868:	4413      	add	r3, r2
 800286a:	f88d 2076 	strb.w	r2, [sp, #118]	; 0x76
 800286e:	f88d 3077 	strb.w	r3, [sp, #119]	; 0x77
 8002872:	a91e      	add	r1, sp, #120	; 0x78
 8002874:	e714      	b.n	80026a0 <_svfprintf_r+0x500>
 8002876:	f1bb 0f00 	cmp.w	fp, #0
 800287a:	d101      	bne.n	8002880 <_svfprintf_r+0x6e0>
 800287c:	07eb      	lsls	r3, r5, #31
 800287e:	d515      	bpl.n	80028ac <_svfprintf_r+0x70c>
 8002880:	9b0a      	ldr	r3, [sp, #40]	; 0x28
 8002882:	3301      	adds	r3, #1
 8002884:	e7e4      	b.n	8002850 <_svfprintf_r+0x6b0>
 8002886:	9a1b      	ldr	r2, [sp, #108]	; 0x6c
 8002888:	9b07      	ldr	r3, [sp, #28]
 800288a:	429a      	cmp	r2, r3
 800288c:	db06      	blt.n	800289c <_svfprintf_r+0x6fc>
 800288e:	07ef      	lsls	r7, r5, #31
 8002890:	d50e      	bpl.n	80028b0 <_svfprintf_r+0x710>
 8002892:	9b0a      	ldr	r3, [sp, #40]	; 0x28
 8002894:	4413      	add	r3, r2
 8002896:	2267      	movs	r2, #103	; 0x67
 8002898:	9206      	str	r2, [sp, #24]
 800289a:	e7da      	b.n	8002852 <_svfprintf_r+0x6b2>
 800289c:	9b07      	ldr	r3, [sp, #28]
 800289e:	990a      	ldr	r1, [sp, #40]	; 0x28
 80028a0:	2a00      	cmp	r2, #0
 80028a2:	440b      	add	r3, r1
 80028a4:	dcf7      	bgt.n	8002896 <_svfprintf_r+0x6f6>
 80028a6:	f1c2 0201 	rsb	r2, r2, #1
 80028aa:	e7f3      	b.n	8002894 <_svfprintf_r+0x6f4>
 80028ac:	2301      	movs	r3, #1
 80028ae:	e7d0      	b.n	8002852 <_svfprintf_r+0x6b2>
 80028b0:	4613      	mov	r3, r2
 80028b2:	e7f0      	b.n	8002896 <_svfprintf_r+0x6f6>
 80028b4:	b10b      	cbz	r3, 80028ba <_svfprintf_r+0x71a>
 80028b6:	f88d 2067 	strb.w	r2, [sp, #103]	; 0x67
 80028ba:	f015 0f20 	tst.w	r5, #32
 80028be:	f107 0304 	add.w	r3, r7, #4
 80028c2:	d008      	beq.n	80028d6 <_svfprintf_r+0x736>
 80028c4:	990b      	ldr	r1, [sp, #44]	; 0x2c
 80028c6:	683a      	ldr	r2, [r7, #0]
 80028c8:	17ce      	asrs	r6, r1, #31
 80028ca:	4608      	mov	r0, r1
 80028cc:	4631      	mov	r1, r6
 80028ce:	e9c2 0100 	strd	r0, r1, [r2]
 80028d2:	461f      	mov	r7, r3
 80028d4:	e49e      	b.n	8002214 <_svfprintf_r+0x74>
 80028d6:	06ee      	lsls	r6, r5, #27
 80028d8:	d503      	bpl.n	80028e2 <_svfprintf_r+0x742>
 80028da:	683a      	ldr	r2, [r7, #0]
 80028dc:	990b      	ldr	r1, [sp, #44]	; 0x2c
 80028de:	6011      	str	r1, [r2, #0]
 80028e0:	e7f7      	b.n	80028d2 <_svfprintf_r+0x732>
 80028e2:	0668      	lsls	r0, r5, #25
 80028e4:	d5f9      	bpl.n	80028da <_svfprintf_r+0x73a>
 80028e6:	683a      	ldr	r2, [r7, #0]
 80028e8:	f8bd 102c 	ldrh.w	r1, [sp, #44]	; 0x2c
 80028ec:	8011      	strh	r1, [r2, #0]
 80028ee:	e7f0      	b.n	80028d2 <_svfprintf_r+0x732>
 80028f0:	f045 0510 	orr.w	r5, r5, #16
 80028f4:	f015 0320 	ands.w	r3, r5, #32
 80028f8:	d022      	beq.n	8002940 <_svfprintf_r+0x7a0>
 80028fa:	3707      	adds	r7, #7
 80028fc:	f027 0707 	bic.w	r7, r7, #7
 8002900:	f107 0308 	add.w	r3, r7, #8
 8002904:	9308      	str	r3, [sp, #32]
 8002906:	e9d7 6700 	ldrd	r6, r7, [r7]
 800290a:	2300      	movs	r3, #0
 800290c:	2200      	movs	r2, #0
 800290e:	f88d 2067 	strb.w	r2, [sp, #103]	; 0x67
 8002912:	f1bb 3fff 	cmp.w	fp, #4294967295
 8002916:	f000 83db 	beq.w	80030d0 <_svfprintf_r+0xf30>
 800291a:	f025 0280 	bic.w	r2, r5, #128	; 0x80
 800291e:	920f      	str	r2, [sp, #60]	; 0x3c
 8002920:	ea56 0207 	orrs.w	r2, r6, r7
 8002924:	f040 83d9 	bne.w	80030da <_svfprintf_r+0xf3a>
 8002928:	f1bb 0f00 	cmp.w	fp, #0
 800292c:	f000 80aa 	beq.w	8002a84 <_svfprintf_r+0x8e4>
 8002930:	2b01      	cmp	r3, #1
 8002932:	d076      	beq.n	8002a22 <_svfprintf_r+0x882>
 8002934:	2b02      	cmp	r3, #2
 8002936:	f000 8091 	beq.w	8002a5c <_svfprintf_r+0x8bc>
 800293a:	2600      	movs	r6, #0
 800293c:	2700      	movs	r7, #0
 800293e:	e3d2      	b.n	80030e6 <_svfprintf_r+0xf46>
 8002940:	1d3a      	adds	r2, r7, #4
 8002942:	f015 0110 	ands.w	r1, r5, #16
 8002946:	9208      	str	r2, [sp, #32]
 8002948:	d002      	beq.n	8002950 <_svfprintf_r+0x7b0>
 800294a:	683e      	ldr	r6, [r7, #0]
 800294c:	2700      	movs	r7, #0
 800294e:	e7dd      	b.n	800290c <_svfprintf_r+0x76c>
 8002950:	f015 0340 	ands.w	r3, r5, #64	; 0x40
 8002954:	d0f9      	beq.n	800294a <_svfprintf_r+0x7aa>
 8002956:	883e      	ldrh	r6, [r7, #0]
 8002958:	2700      	movs	r7, #0
 800295a:	e7d6      	b.n	800290a <_svfprintf_r+0x76a>
 800295c:	1d3b      	adds	r3, r7, #4
 800295e:	9308      	str	r3, [sp, #32]
 8002960:	2330      	movs	r3, #48	; 0x30
 8002962:	2278      	movs	r2, #120	; 0x78
 8002964:	f88d 3068 	strb.w	r3, [sp, #104]	; 0x68
 8002968:	4b14      	ldr	r3, [pc, #80]	; (80029bc <_svfprintf_r+0x81c>)
 800296a:	683e      	ldr	r6, [r7, #0]
 800296c:	9315      	str	r3, [sp, #84]	; 0x54
 800296e:	2700      	movs	r7, #0
 8002970:	f045 0502 	orr.w	r5, r5, #2
 8002974:	f88d 2069 	strb.w	r2, [sp, #105]	; 0x69
 8002978:	2302      	movs	r3, #2
 800297a:	9206      	str	r2, [sp, #24]
 800297c:	e7c6      	b.n	800290c <_svfprintf_r+0x76c>
 800297e:	2600      	movs	r6, #0
 8002980:	1d3b      	adds	r3, r7, #4
 8002982:	f1bb 3fff 	cmp.w	fp, #4294967295
 8002986:	9308      	str	r3, [sp, #32]
 8002988:	f8d7 8000 	ldr.w	r8, [r7]
 800298c:	f88d 6067 	strb.w	r6, [sp, #103]	; 0x67
 8002990:	d00a      	beq.n	80029a8 <_svfprintf_r+0x808>
 8002992:	465a      	mov	r2, fp
 8002994:	4631      	mov	r1, r6
 8002996:	4640      	mov	r0, r8
 8002998:	f001 fd66 	bl	8004468 <memchr>
 800299c:	2800      	cmp	r0, #0
 800299e:	f000 808d 	beq.w	8002abc <_svfprintf_r+0x91c>
 80029a2:	eba0 0b08 	sub.w	fp, r0, r8
 80029a6:	e5c4      	b.n	8002532 <_svfprintf_r+0x392>
 80029a8:	4640      	mov	r0, r8
 80029aa:	f7fd fbe9 	bl	8000180 <strlen>
 80029ae:	4683      	mov	fp, r0
 80029b0:	e5bf      	b.n	8002532 <_svfprintf_r+0x392>
 80029b2:	bf00      	nop
 80029b4:	080054dc 	.word	0x080054dc
 80029b8:	080054ec 	.word	0x080054ec
 80029bc:	080054c9 	.word	0x080054c9
 80029c0:	f045 0510 	orr.w	r5, r5, #16
 80029c4:	06a9      	lsls	r1, r5, #26
 80029c6:	d509      	bpl.n	80029dc <_svfprintf_r+0x83c>
 80029c8:	3707      	adds	r7, #7
 80029ca:	f027 0707 	bic.w	r7, r7, #7
 80029ce:	f107 0308 	add.w	r3, r7, #8
 80029d2:	9308      	str	r3, [sp, #32]
 80029d4:	e9d7 6700 	ldrd	r6, r7, [r7]
 80029d8:	2301      	movs	r3, #1
 80029da:	e797      	b.n	800290c <_svfprintf_r+0x76c>
 80029dc:	1d3b      	adds	r3, r7, #4
 80029de:	f015 0f10 	tst.w	r5, #16
 80029e2:	9308      	str	r3, [sp, #32]
 80029e4:	d001      	beq.n	80029ea <_svfprintf_r+0x84a>
 80029e6:	683e      	ldr	r6, [r7, #0]
 80029e8:	e002      	b.n	80029f0 <_svfprintf_r+0x850>
 80029ea:	066a      	lsls	r2, r5, #25
 80029ec:	d5fb      	bpl.n	80029e6 <_svfprintf_r+0x846>
 80029ee:	883e      	ldrh	r6, [r7, #0]
 80029f0:	2700      	movs	r7, #0
 80029f2:	e7f1      	b.n	80029d8 <_svfprintf_r+0x838>
 80029f4:	b10b      	cbz	r3, 80029fa <_svfprintf_r+0x85a>
 80029f6:	f88d 2067 	strb.w	r2, [sp, #103]	; 0x67
 80029fa:	4ba3      	ldr	r3, [pc, #652]	; (8002c88 <_svfprintf_r+0xae8>)
 80029fc:	e4c5      	b.n	800238a <_svfprintf_r+0x1ea>
 80029fe:	1d3b      	adds	r3, r7, #4
 8002a00:	f015 0f10 	tst.w	r5, #16
 8002a04:	9308      	str	r3, [sp, #32]
 8002a06:	d001      	beq.n	8002a0c <_svfprintf_r+0x86c>
 8002a08:	683e      	ldr	r6, [r7, #0]
 8002a0a:	e002      	b.n	8002a12 <_svfprintf_r+0x872>
 8002a0c:	066e      	lsls	r6, r5, #25
 8002a0e:	d5fb      	bpl.n	8002a08 <_svfprintf_r+0x868>
 8002a10:	883e      	ldrh	r6, [r7, #0]
 8002a12:	2700      	movs	r7, #0
 8002a14:	e4c5      	b.n	80023a2 <_svfprintf_r+0x202>
 8002a16:	4643      	mov	r3, r8
 8002a18:	e366      	b.n	80030e8 <_svfprintf_r+0xf48>
 8002a1a:	2f00      	cmp	r7, #0
 8002a1c:	bf08      	it	eq
 8002a1e:	2e0a      	cmpeq	r6, #10
 8002a20:	d205      	bcs.n	8002a2e <_svfprintf_r+0x88e>
 8002a22:	3630      	adds	r6, #48	; 0x30
 8002a24:	f10d 08f8 	add.w	r8, sp, #248	; 0xf8
 8002a28:	f808 6d41 	strb.w	r6, [r8, #-65]!
 8002a2c:	e377      	b.n	800311e <_svfprintf_r+0xf7e>
 8002a2e:	f10d 08b8 	add.w	r8, sp, #184	; 0xb8
 8002a32:	4630      	mov	r0, r6
 8002a34:	4639      	mov	r1, r7
 8002a36:	220a      	movs	r2, #10
 8002a38:	2300      	movs	r3, #0
 8002a3a:	f7fe fb07 	bl	800104c <__aeabi_uldivmod>
 8002a3e:	3230      	adds	r2, #48	; 0x30
 8002a40:	f808 2d01 	strb.w	r2, [r8, #-1]!
 8002a44:	2300      	movs	r3, #0
 8002a46:	4630      	mov	r0, r6
 8002a48:	4639      	mov	r1, r7
 8002a4a:	220a      	movs	r2, #10
 8002a4c:	f7fe fafe 	bl	800104c <__aeabi_uldivmod>
 8002a50:	4606      	mov	r6, r0
 8002a52:	460f      	mov	r7, r1
 8002a54:	ea56 0307 	orrs.w	r3, r6, r7
 8002a58:	d1eb      	bne.n	8002a32 <_svfprintf_r+0x892>
 8002a5a:	e360      	b.n	800311e <_svfprintf_r+0xf7e>
 8002a5c:	2600      	movs	r6, #0
 8002a5e:	2700      	movs	r7, #0
 8002a60:	f10d 08b8 	add.w	r8, sp, #184	; 0xb8
 8002a64:	9a15      	ldr	r2, [sp, #84]	; 0x54
 8002a66:	f006 030f 	and.w	r3, r6, #15
 8002a6a:	5cd3      	ldrb	r3, [r2, r3]
 8002a6c:	093a      	lsrs	r2, r7, #4
 8002a6e:	f808 3d01 	strb.w	r3, [r8, #-1]!
 8002a72:	0933      	lsrs	r3, r6, #4
 8002a74:	ea43 7307 	orr.w	r3, r3, r7, lsl #28
 8002a78:	461e      	mov	r6, r3
 8002a7a:	4617      	mov	r7, r2
 8002a7c:	ea56 0307 	orrs.w	r3, r6, r7
 8002a80:	d1f0      	bne.n	8002a64 <_svfprintf_r+0x8c4>
 8002a82:	e34c      	b.n	800311e <_svfprintf_r+0xf7e>
 8002a84:	b93b      	cbnz	r3, 8002a96 <_svfprintf_r+0x8f6>
 8002a86:	07ea      	lsls	r2, r5, #31
 8002a88:	d505      	bpl.n	8002a96 <_svfprintf_r+0x8f6>
 8002a8a:	2330      	movs	r3, #48	; 0x30
 8002a8c:	f10d 08f8 	add.w	r8, sp, #248	; 0xf8
 8002a90:	f808 3d41 	strb.w	r3, [r8, #-65]!
 8002a94:	e343      	b.n	800311e <_svfprintf_r+0xf7e>
 8002a96:	f10d 08b8 	add.w	r8, sp, #184	; 0xb8
 8002a9a:	e340      	b.n	800311e <_svfprintf_r+0xf7e>
 8002a9c:	b10b      	cbz	r3, 8002aa2 <_svfprintf_r+0x902>
 8002a9e:	f88d 2067 	strb.w	r2, [sp, #103]	; 0x67
 8002aa2:	9b06      	ldr	r3, [sp, #24]
 8002aa4:	2b00      	cmp	r3, #0
 8002aa6:	f000 82f7 	beq.w	8003098 <_svfprintf_r+0xef8>
 8002aaa:	2600      	movs	r6, #0
 8002aac:	f89d 3018 	ldrb.w	r3, [sp, #24]
 8002ab0:	f88d 6067 	strb.w	r6, [sp, #103]	; 0x67
 8002ab4:	f88d 3090 	strb.w	r3, [sp, #144]	; 0x90
 8002ab8:	9708      	str	r7, [sp, #32]
 8002aba:	e4e3      	b.n	8002484 <_svfprintf_r+0x2e4>
 8002abc:	4606      	mov	r6, r0
 8002abe:	e538      	b.n	8002532 <_svfprintf_r+0x392>
 8002ac0:	2310      	movs	r3, #16
 8002ac2:	6063      	str	r3, [r4, #4]
 8002ac4:	9b23      	ldr	r3, [sp, #140]	; 0x8c
 8002ac6:	3310      	adds	r3, #16
 8002ac8:	9323      	str	r3, [sp, #140]	; 0x8c
 8002aca:	9b22      	ldr	r3, [sp, #136]	; 0x88
 8002acc:	3301      	adds	r3, #1
 8002ace:	2b07      	cmp	r3, #7
 8002ad0:	9322      	str	r3, [sp, #136]	; 0x88
 8002ad2:	dc04      	bgt.n	8002ade <_svfprintf_r+0x93e>
 8002ad4:	3408      	adds	r4, #8
 8002ad6:	9b10      	ldr	r3, [sp, #64]	; 0x40
 8002ad8:	3b10      	subs	r3, #16
 8002ada:	9310      	str	r3, [sp, #64]	; 0x40
 8002adc:	e611      	b.n	8002702 <_svfprintf_r+0x562>
 8002ade:	aa21      	add	r2, sp, #132	; 0x84
 8002ae0:	4649      	mov	r1, r9
 8002ae2:	4650      	mov	r0, sl
 8002ae4:	f001 ffc8 	bl	8004a78 <__ssprint_r>
 8002ae8:	2800      	cmp	r0, #0
 8002aea:	f040 82b6 	bne.w	800305a <_svfprintf_r+0xeba>
 8002aee:	ac2e      	add	r4, sp, #184	; 0xb8
 8002af0:	e7f1      	b.n	8002ad6 <_svfprintf_r+0x936>
 8002af2:	aa21      	add	r2, sp, #132	; 0x84
 8002af4:	4649      	mov	r1, r9
 8002af6:	4650      	mov	r0, sl
 8002af8:	f001 ffbe 	bl	8004a78 <__ssprint_r>
 8002afc:	2800      	cmp	r0, #0
 8002afe:	f040 82ac 	bne.w	800305a <_svfprintf_r+0xeba>
 8002b02:	ac2e      	add	r4, sp, #184	; 0xb8
 8002b04:	e610      	b.n	8002728 <_svfprintf_r+0x588>
 8002b06:	aa21      	add	r2, sp, #132	; 0x84
 8002b08:	4649      	mov	r1, r9
 8002b0a:	4650      	mov	r0, sl
 8002b0c:	f001 ffb4 	bl	8004a78 <__ssprint_r>
 8002b10:	2800      	cmp	r0, #0
 8002b12:	f040 82a2 	bne.w	800305a <_svfprintf_r+0xeba>
 8002b16:	ac2e      	add	r4, sp, #184	; 0xb8
 8002b18:	e618      	b.n	800274c <_svfprintf_r+0x5ac>
 8002b1a:	aa21      	add	r2, sp, #132	; 0x84
 8002b1c:	4649      	mov	r1, r9
 8002b1e:	4650      	mov	r0, sl
 8002b20:	f001 ffaa 	bl	8004a78 <__ssprint_r>
 8002b24:	2800      	cmp	r0, #0
 8002b26:	f040 8298 	bne.w	800305a <_svfprintf_r+0xeba>
 8002b2a:	ac2e      	add	r4, sp, #184	; 0xb8
 8002b2c:	e61e      	b.n	800276c <_svfprintf_r+0x5cc>
 8002b2e:	2310      	movs	r3, #16
 8002b30:	6063      	str	r3, [r4, #4]
 8002b32:	9b23      	ldr	r3, [sp, #140]	; 0x8c
 8002b34:	3310      	adds	r3, #16
 8002b36:	9323      	str	r3, [sp, #140]	; 0x8c
 8002b38:	9b22      	ldr	r3, [sp, #136]	; 0x88
 8002b3a:	3301      	adds	r3, #1
 8002b3c:	2b07      	cmp	r3, #7
 8002b3e:	9322      	str	r3, [sp, #136]	; 0x88
 8002b40:	dc04      	bgt.n	8002b4c <_svfprintf_r+0x9ac>
 8002b42:	3408      	adds	r4, #8
 8002b44:	9b10      	ldr	r3, [sp, #64]	; 0x40
 8002b46:	3b10      	subs	r3, #16
 8002b48:	9310      	str	r3, [sp, #64]	; 0x40
 8002b4a:	e618      	b.n	800277e <_svfprintf_r+0x5de>
 8002b4c:	aa21      	add	r2, sp, #132	; 0x84
 8002b4e:	4649      	mov	r1, r9
 8002b50:	4650      	mov	r0, sl
 8002b52:	f001 ff91 	bl	8004a78 <__ssprint_r>
 8002b56:	2800      	cmp	r0, #0
 8002b58:	f040 827f 	bne.w	800305a <_svfprintf_r+0xeba>
 8002b5c:	ac2e      	add	r4, sp, #184	; 0xb8
 8002b5e:	e7f1      	b.n	8002b44 <_svfprintf_r+0x9a4>
 8002b60:	aa21      	add	r2, sp, #132	; 0x84
 8002b62:	4649      	mov	r1, r9
 8002b64:	4650      	mov	r0, sl
 8002b66:	f001 ff87 	bl	8004a78 <__ssprint_r>
 8002b6a:	2800      	cmp	r0, #0
 8002b6c:	f040 8275 	bne.w	800305a <_svfprintf_r+0xeba>
 8002b70:	ac2e      	add	r4, sp, #184	; 0xb8
 8002b72:	e617      	b.n	80027a4 <_svfprintf_r+0x604>
 8002b74:	2310      	movs	r3, #16
 8002b76:	6063      	str	r3, [r4, #4]
 8002b78:	9b23      	ldr	r3, [sp, #140]	; 0x8c
 8002b7a:	3310      	adds	r3, #16
 8002b7c:	9323      	str	r3, [sp, #140]	; 0x8c
 8002b7e:	9b22      	ldr	r3, [sp, #136]	; 0x88
 8002b80:	3301      	adds	r3, #1
 8002b82:	2b07      	cmp	r3, #7
 8002b84:	9322      	str	r3, [sp, #136]	; 0x88
 8002b86:	dc02      	bgt.n	8002b8e <_svfprintf_r+0x9ee>
 8002b88:	3408      	adds	r4, #8
 8002b8a:	3e10      	subs	r6, #16
 8002b8c:	e60e      	b.n	80027ac <_svfprintf_r+0x60c>
 8002b8e:	aa21      	add	r2, sp, #132	; 0x84
 8002b90:	4649      	mov	r1, r9
 8002b92:	4650      	mov	r0, sl
 8002b94:	f001 ff70 	bl	8004a78 <__ssprint_r>
 8002b98:	2800      	cmp	r0, #0
 8002b9a:	f040 825e 	bne.w	800305a <_svfprintf_r+0xeba>
 8002b9e:	ac2e      	add	r4, sp, #184	; 0xb8
 8002ba0:	e7f3      	b.n	8002b8a <_svfprintf_r+0x9ea>
 8002ba2:	aa21      	add	r2, sp, #132	; 0x84
 8002ba4:	4649      	mov	r1, r9
 8002ba6:	4650      	mov	r0, sl
 8002ba8:	f001 ff66 	bl	8004a78 <__ssprint_r>
 8002bac:	2800      	cmp	r0, #0
 8002bae:	f040 8254 	bne.w	800305a <_svfprintf_r+0xeba>
 8002bb2:	ac2e      	add	r4, sp, #184	; 0xb8
 8002bb4:	e60a      	b.n	80027cc <_svfprintf_r+0x62c>
 8002bb6:	9b06      	ldr	r3, [sp, #24]
 8002bb8:	2b65      	cmp	r3, #101	; 0x65
 8002bba:	f340 81a9 	ble.w	8002f10 <_svfprintf_r+0xd70>
 8002bbe:	9a12      	ldr	r2, [sp, #72]	; 0x48
 8002bc0:	9b13      	ldr	r3, [sp, #76]	; 0x4c
 8002bc2:	980d      	ldr	r0, [sp, #52]	; 0x34
 8002bc4:	990e      	ldr	r1, [sp, #56]	; 0x38
 8002bc6:	f7fd ff03 	bl	80009d0 <__aeabi_dcmpeq>
 8002bca:	2800      	cmp	r0, #0
 8002bcc:	d062      	beq.n	8002c94 <_svfprintf_r+0xaf4>
 8002bce:	4b2f      	ldr	r3, [pc, #188]	; (8002c8c <_svfprintf_r+0xaec>)
 8002bd0:	6023      	str	r3, [r4, #0]
 8002bd2:	2301      	movs	r3, #1
 8002bd4:	6063      	str	r3, [r4, #4]
 8002bd6:	9b23      	ldr	r3, [sp, #140]	; 0x8c
 8002bd8:	3301      	adds	r3, #1
 8002bda:	9323      	str	r3, [sp, #140]	; 0x8c
 8002bdc:	9b22      	ldr	r3, [sp, #136]	; 0x88
 8002bde:	3301      	adds	r3, #1
 8002be0:	2b07      	cmp	r3, #7
 8002be2:	9322      	str	r3, [sp, #136]	; 0x88
 8002be4:	dc25      	bgt.n	8002c32 <_svfprintf_r+0xa92>
 8002be6:	3408      	adds	r4, #8
 8002be8:	9b1b      	ldr	r3, [sp, #108]	; 0x6c
 8002bea:	9a07      	ldr	r2, [sp, #28]
 8002bec:	4293      	cmp	r3, r2
 8002bee:	db02      	blt.n	8002bf6 <_svfprintf_r+0xa56>
 8002bf0:	07ee      	lsls	r6, r5, #31
 8002bf2:	f57f ae02 	bpl.w	80027fa <_svfprintf_r+0x65a>
 8002bf6:	9b11      	ldr	r3, [sp, #68]	; 0x44
 8002bf8:	9a0a      	ldr	r2, [sp, #40]	; 0x28
 8002bfa:	6023      	str	r3, [r4, #0]
 8002bfc:	9b0a      	ldr	r3, [sp, #40]	; 0x28
 8002bfe:	6063      	str	r3, [r4, #4]
 8002c00:	9b23      	ldr	r3, [sp, #140]	; 0x8c
 8002c02:	4413      	add	r3, r2
 8002c04:	9323      	str	r3, [sp, #140]	; 0x8c
 8002c06:	9b22      	ldr	r3, [sp, #136]	; 0x88
 8002c08:	3301      	adds	r3, #1
 8002c0a:	2b07      	cmp	r3, #7
 8002c0c:	9322      	str	r3, [sp, #136]	; 0x88
 8002c0e:	dc1a      	bgt.n	8002c46 <_svfprintf_r+0xaa6>
 8002c10:	3408      	adds	r4, #8
 8002c12:	9b07      	ldr	r3, [sp, #28]
 8002c14:	1e5e      	subs	r6, r3, #1
 8002c16:	2e00      	cmp	r6, #0
 8002c18:	f77f adef 	ble.w	80027fa <_svfprintf_r+0x65a>
 8002c1c:	f04f 0810 	mov.w	r8, #16
 8002c20:	4f1b      	ldr	r7, [pc, #108]	; (8002c90 <_svfprintf_r+0xaf0>)
 8002c22:	2e10      	cmp	r6, #16
 8002c24:	6027      	str	r7, [r4, #0]
 8002c26:	dc18      	bgt.n	8002c5a <_svfprintf_r+0xaba>
 8002c28:	6066      	str	r6, [r4, #4]
 8002c2a:	9b23      	ldr	r3, [sp, #140]	; 0x8c
 8002c2c:	441e      	add	r6, r3
 8002c2e:	9623      	str	r6, [sp, #140]	; 0x8c
 8002c30:	e5d4      	b.n	80027dc <_svfprintf_r+0x63c>
 8002c32:	aa21      	add	r2, sp, #132	; 0x84
 8002c34:	4649      	mov	r1, r9
 8002c36:	4650      	mov	r0, sl
 8002c38:	f001 ff1e 	bl	8004a78 <__ssprint_r>
 8002c3c:	2800      	cmp	r0, #0
 8002c3e:	f040 820c 	bne.w	800305a <_svfprintf_r+0xeba>
 8002c42:	ac2e      	add	r4, sp, #184	; 0xb8
 8002c44:	e7d0      	b.n	8002be8 <_svfprintf_r+0xa48>
 8002c46:	aa21      	add	r2, sp, #132	; 0x84
 8002c48:	4649      	mov	r1, r9
 8002c4a:	4650      	mov	r0, sl
 8002c4c:	f001 ff14 	bl	8004a78 <__ssprint_r>
 8002c50:	2800      	cmp	r0, #0
 8002c52:	f040 8202 	bne.w	800305a <_svfprintf_r+0xeba>
 8002c56:	ac2e      	add	r4, sp, #184	; 0xb8
 8002c58:	e7db      	b.n	8002c12 <_svfprintf_r+0xa72>
 8002c5a:	9b23      	ldr	r3, [sp, #140]	; 0x8c
 8002c5c:	f8c4 8004 	str.w	r8, [r4, #4]
 8002c60:	3310      	adds	r3, #16
 8002c62:	9323      	str	r3, [sp, #140]	; 0x8c
 8002c64:	9b22      	ldr	r3, [sp, #136]	; 0x88
 8002c66:	3301      	adds	r3, #1
 8002c68:	2b07      	cmp	r3, #7
 8002c6a:	9322      	str	r3, [sp, #136]	; 0x88
 8002c6c:	dc02      	bgt.n	8002c74 <_svfprintf_r+0xad4>
 8002c6e:	3408      	adds	r4, #8
 8002c70:	3e10      	subs	r6, #16
 8002c72:	e7d6      	b.n	8002c22 <_svfprintf_r+0xa82>
 8002c74:	aa21      	add	r2, sp, #132	; 0x84
 8002c76:	4649      	mov	r1, r9
 8002c78:	4650      	mov	r0, sl
 8002c7a:	f001 fefd 	bl	8004a78 <__ssprint_r>
 8002c7e:	2800      	cmp	r0, #0
 8002c80:	f040 81eb 	bne.w	800305a <_svfprintf_r+0xeba>
 8002c84:	ac2e      	add	r4, sp, #184	; 0xb8
 8002c86:	e7f3      	b.n	8002c70 <_svfprintf_r+0xad0>
 8002c88:	080054c9 	.word	0x080054c9
 8002c8c:	080054da 	.word	0x080054da
 8002c90:	080054ec 	.word	0x080054ec
 8002c94:	9b1b      	ldr	r3, [sp, #108]	; 0x6c
 8002c96:	2b00      	cmp	r3, #0
 8002c98:	dc7a      	bgt.n	8002d90 <_svfprintf_r+0xbf0>
 8002c9a:	4b9b      	ldr	r3, [pc, #620]	; (8002f08 <_svfprintf_r+0xd68>)
 8002c9c:	6023      	str	r3, [r4, #0]
 8002c9e:	2301      	movs	r3, #1
 8002ca0:	6063      	str	r3, [r4, #4]
 8002ca2:	9b23      	ldr	r3, [sp, #140]	; 0x8c
 8002ca4:	3301      	adds	r3, #1
 8002ca6:	9323      	str	r3, [sp, #140]	; 0x8c
 8002ca8:	9b22      	ldr	r3, [sp, #136]	; 0x88
 8002caa:	3301      	adds	r3, #1
 8002cac:	2b07      	cmp	r3, #7
 8002cae:	9322      	str	r3, [sp, #136]	; 0x88
 8002cb0:	dc44      	bgt.n	8002d3c <_svfprintf_r+0xb9c>
 8002cb2:	3408      	adds	r4, #8
 8002cb4:	9b1b      	ldr	r3, [sp, #108]	; 0x6c
 8002cb6:	b923      	cbnz	r3, 8002cc2 <_svfprintf_r+0xb22>
 8002cb8:	9b07      	ldr	r3, [sp, #28]
 8002cba:	b913      	cbnz	r3, 8002cc2 <_svfprintf_r+0xb22>
 8002cbc:	07e8      	lsls	r0, r5, #31
 8002cbe:	f57f ad9c 	bpl.w	80027fa <_svfprintf_r+0x65a>
 8002cc2:	9b11      	ldr	r3, [sp, #68]	; 0x44
 8002cc4:	9a0a      	ldr	r2, [sp, #40]	; 0x28
 8002cc6:	6023      	str	r3, [r4, #0]
 8002cc8:	9b0a      	ldr	r3, [sp, #40]	; 0x28
 8002cca:	6063      	str	r3, [r4, #4]
 8002ccc:	9b23      	ldr	r3, [sp, #140]	; 0x8c
 8002cce:	4413      	add	r3, r2
 8002cd0:	9323      	str	r3, [sp, #140]	; 0x8c
 8002cd2:	9b22      	ldr	r3, [sp, #136]	; 0x88
 8002cd4:	3301      	adds	r3, #1
 8002cd6:	2b07      	cmp	r3, #7
 8002cd8:	9322      	str	r3, [sp, #136]	; 0x88
 8002cda:	dc39      	bgt.n	8002d50 <_svfprintf_r+0xbb0>
 8002cdc:	f104 0308 	add.w	r3, r4, #8
 8002ce0:	9e1b      	ldr	r6, [sp, #108]	; 0x6c
 8002ce2:	2e00      	cmp	r6, #0
 8002ce4:	da19      	bge.n	8002d1a <_svfprintf_r+0xb7a>
 8002ce6:	2410      	movs	r4, #16
 8002ce8:	4f88      	ldr	r7, [pc, #544]	; (8002f0c <_svfprintf_r+0xd6c>)
 8002cea:	4276      	negs	r6, r6
 8002cec:	2e10      	cmp	r6, #16
 8002cee:	601f      	str	r7, [r3, #0]
 8002cf0:	dc38      	bgt.n	8002d64 <_svfprintf_r+0xbc4>
 8002cf2:	9a23      	ldr	r2, [sp, #140]	; 0x8c
 8002cf4:	605e      	str	r6, [r3, #4]
 8002cf6:	4416      	add	r6, r2
 8002cf8:	9a22      	ldr	r2, [sp, #136]	; 0x88
 8002cfa:	9623      	str	r6, [sp, #140]	; 0x8c
 8002cfc:	3201      	adds	r2, #1
 8002cfe:	2a07      	cmp	r2, #7
 8002d00:	f103 0308 	add.w	r3, r3, #8
 8002d04:	9222      	str	r2, [sp, #136]	; 0x88
 8002d06:	dd08      	ble.n	8002d1a <_svfprintf_r+0xb7a>
 8002d08:	aa21      	add	r2, sp, #132	; 0x84
 8002d0a:	4649      	mov	r1, r9
 8002d0c:	4650      	mov	r0, sl
 8002d0e:	f001 feb3 	bl	8004a78 <__ssprint_r>
 8002d12:	2800      	cmp	r0, #0
 8002d14:	f040 81a1 	bne.w	800305a <_svfprintf_r+0xeba>
 8002d18:	ab2e      	add	r3, sp, #184	; 0xb8
 8002d1a:	9a07      	ldr	r2, [sp, #28]
 8002d1c:	9907      	ldr	r1, [sp, #28]
 8002d1e:	605a      	str	r2, [r3, #4]
 8002d20:	9a23      	ldr	r2, [sp, #140]	; 0x8c
 8002d22:	f8c3 8000 	str.w	r8, [r3]
 8002d26:	440a      	add	r2, r1
 8002d28:	9223      	str	r2, [sp, #140]	; 0x8c
 8002d2a:	9a22      	ldr	r2, [sp, #136]	; 0x88
 8002d2c:	3201      	adds	r2, #1
 8002d2e:	2a07      	cmp	r2, #7
 8002d30:	9222      	str	r2, [sp, #136]	; 0x88
 8002d32:	f73f ad59 	bgt.w	80027e8 <_svfprintf_r+0x648>
 8002d36:	f103 0408 	add.w	r4, r3, #8
 8002d3a:	e55e      	b.n	80027fa <_svfprintf_r+0x65a>
 8002d3c:	aa21      	add	r2, sp, #132	; 0x84
 8002d3e:	4649      	mov	r1, r9
 8002d40:	4650      	mov	r0, sl
 8002d42:	f001 fe99 	bl	8004a78 <__ssprint_r>
 8002d46:	2800      	cmp	r0, #0
 8002d48:	f040 8187 	bne.w	800305a <_svfprintf_r+0xeba>
 8002d4c:	ac2e      	add	r4, sp, #184	; 0xb8
 8002d4e:	e7b1      	b.n	8002cb4 <_svfprintf_r+0xb14>
 8002d50:	aa21      	add	r2, sp, #132	; 0x84
 8002d52:	4649      	mov	r1, r9
 8002d54:	4650      	mov	r0, sl
 8002d56:	f001 fe8f 	bl	8004a78 <__ssprint_r>
 8002d5a:	2800      	cmp	r0, #0
 8002d5c:	f040 817d 	bne.w	800305a <_svfprintf_r+0xeba>
 8002d60:	ab2e      	add	r3, sp, #184	; 0xb8
 8002d62:	e7bd      	b.n	8002ce0 <_svfprintf_r+0xb40>
 8002d64:	9a23      	ldr	r2, [sp, #140]	; 0x8c
 8002d66:	605c      	str	r4, [r3, #4]
 8002d68:	3210      	adds	r2, #16
 8002d6a:	9223      	str	r2, [sp, #140]	; 0x8c
 8002d6c:	9a22      	ldr	r2, [sp, #136]	; 0x88
 8002d6e:	3201      	adds	r2, #1
 8002d70:	2a07      	cmp	r2, #7
 8002d72:	9222      	str	r2, [sp, #136]	; 0x88
 8002d74:	dc02      	bgt.n	8002d7c <_svfprintf_r+0xbdc>
 8002d76:	3308      	adds	r3, #8
 8002d78:	3e10      	subs	r6, #16
 8002d7a:	e7b7      	b.n	8002cec <_svfprintf_r+0xb4c>
 8002d7c:	aa21      	add	r2, sp, #132	; 0x84
 8002d7e:	4649      	mov	r1, r9
 8002d80:	4650      	mov	r0, sl
 8002d82:	f001 fe79 	bl	8004a78 <__ssprint_r>
 8002d86:	2800      	cmp	r0, #0
 8002d88:	f040 8167 	bne.w	800305a <_svfprintf_r+0xeba>
 8002d8c:	ab2e      	add	r3, sp, #184	; 0xb8
 8002d8e:	e7f3      	b.n	8002d78 <_svfprintf_r+0xbd8>
 8002d90:	9b07      	ldr	r3, [sp, #28]
 8002d92:	42bb      	cmp	r3, r7
 8002d94:	bfa8      	it	ge
 8002d96:	463b      	movge	r3, r7
 8002d98:	2b00      	cmp	r3, #0
 8002d9a:	461e      	mov	r6, r3
 8002d9c:	dd0b      	ble.n	8002db6 <_svfprintf_r+0xc16>
 8002d9e:	6063      	str	r3, [r4, #4]
 8002da0:	9b23      	ldr	r3, [sp, #140]	; 0x8c
 8002da2:	f8c4 8000 	str.w	r8, [r4]
 8002da6:	4433      	add	r3, r6
 8002da8:	9323      	str	r3, [sp, #140]	; 0x8c
 8002daa:	9b22      	ldr	r3, [sp, #136]	; 0x88
 8002dac:	3301      	adds	r3, #1
 8002dae:	2b07      	cmp	r3, #7
 8002db0:	9322      	str	r3, [sp, #136]	; 0x88
 8002db2:	dc5f      	bgt.n	8002e74 <_svfprintf_r+0xcd4>
 8002db4:	3408      	adds	r4, #8
 8002db6:	2e00      	cmp	r6, #0
 8002db8:	bfb4      	ite	lt
 8002dba:	463e      	movlt	r6, r7
 8002dbc:	1bbe      	subge	r6, r7, r6
 8002dbe:	2e00      	cmp	r6, #0
 8002dc0:	dd0f      	ble.n	8002de2 <_svfprintf_r+0xc42>
 8002dc2:	f8df b148 	ldr.w	fp, [pc, #328]	; 8002f0c <_svfprintf_r+0xd6c>
 8002dc6:	2e10      	cmp	r6, #16
 8002dc8:	f8c4 b000 	str.w	fp, [r4]
 8002dcc:	dc5c      	bgt.n	8002e88 <_svfprintf_r+0xce8>
 8002dce:	9b23      	ldr	r3, [sp, #140]	; 0x8c
 8002dd0:	6066      	str	r6, [r4, #4]
 8002dd2:	441e      	add	r6, r3
 8002dd4:	9b22      	ldr	r3, [sp, #136]	; 0x88
 8002dd6:	9623      	str	r6, [sp, #140]	; 0x8c
 8002dd8:	3301      	adds	r3, #1
 8002dda:	2b07      	cmp	r3, #7
 8002ddc:	9322      	str	r3, [sp, #136]	; 0x88
 8002dde:	dc6a      	bgt.n	8002eb6 <_svfprintf_r+0xd16>
 8002de0:	3408      	adds	r4, #8
 8002de2:	9b1b      	ldr	r3, [sp, #108]	; 0x6c
 8002de4:	9a07      	ldr	r2, [sp, #28]
 8002de6:	4293      	cmp	r3, r2
 8002de8:	db01      	blt.n	8002dee <_svfprintf_r+0xc4e>
 8002dea:	07e9      	lsls	r1, r5, #31
 8002dec:	d50d      	bpl.n	8002e0a <_svfprintf_r+0xc6a>
 8002dee:	9b11      	ldr	r3, [sp, #68]	; 0x44
 8002df0:	9a0a      	ldr	r2, [sp, #40]	; 0x28
 8002df2:	6023      	str	r3, [r4, #0]
 8002df4:	9b0a      	ldr	r3, [sp, #40]	; 0x28
 8002df6:	6063      	str	r3, [r4, #4]
 8002df8:	9b23      	ldr	r3, [sp, #140]	; 0x8c
 8002dfa:	4413      	add	r3, r2
 8002dfc:	9323      	str	r3, [sp, #140]	; 0x8c
 8002dfe:	9b22      	ldr	r3, [sp, #136]	; 0x88
 8002e00:	3301      	adds	r3, #1
 8002e02:	2b07      	cmp	r3, #7
 8002e04:	9322      	str	r3, [sp, #136]	; 0x88
 8002e06:	dc60      	bgt.n	8002eca <_svfprintf_r+0xd2a>
 8002e08:	3408      	adds	r4, #8
 8002e0a:	9b07      	ldr	r3, [sp, #28]
 8002e0c:	9a07      	ldr	r2, [sp, #28]
 8002e0e:	1bde      	subs	r6, r3, r7
 8002e10:	9b1b      	ldr	r3, [sp, #108]	; 0x6c
 8002e12:	1ad3      	subs	r3, r2, r3
 8002e14:	429e      	cmp	r6, r3
 8002e16:	bfa8      	it	ge
 8002e18:	461e      	movge	r6, r3
 8002e1a:	2e00      	cmp	r6, #0
 8002e1c:	dd0b      	ble.n	8002e36 <_svfprintf_r+0xc96>
 8002e1e:	9b23      	ldr	r3, [sp, #140]	; 0x8c
 8002e20:	4447      	add	r7, r8
 8002e22:	4433      	add	r3, r6
 8002e24:	9323      	str	r3, [sp, #140]	; 0x8c
 8002e26:	9b22      	ldr	r3, [sp, #136]	; 0x88
 8002e28:	6027      	str	r7, [r4, #0]
 8002e2a:	3301      	adds	r3, #1
 8002e2c:	2b07      	cmp	r3, #7
 8002e2e:	6066      	str	r6, [r4, #4]
 8002e30:	9322      	str	r3, [sp, #136]	; 0x88
 8002e32:	dc54      	bgt.n	8002ede <_svfprintf_r+0xd3e>
 8002e34:	3408      	adds	r4, #8
 8002e36:	9b1b      	ldr	r3, [sp, #108]	; 0x6c
 8002e38:	9a07      	ldr	r2, [sp, #28]
 8002e3a:	2e00      	cmp	r6, #0
 8002e3c:	eba2 0303 	sub.w	r3, r2, r3
 8002e40:	bfb4      	ite	lt
 8002e42:	461e      	movlt	r6, r3
 8002e44:	1b9e      	subge	r6, r3, r6
 8002e46:	2e00      	cmp	r6, #0
 8002e48:	f77f acd7 	ble.w	80027fa <_svfprintf_r+0x65a>
 8002e4c:	f04f 0810 	mov.w	r8, #16
 8002e50:	4f2e      	ldr	r7, [pc, #184]	; (8002f0c <_svfprintf_r+0xd6c>)
 8002e52:	2e10      	cmp	r6, #16
 8002e54:	6027      	str	r7, [r4, #0]
 8002e56:	f77f aee7 	ble.w	8002c28 <_svfprintf_r+0xa88>
 8002e5a:	9b23      	ldr	r3, [sp, #140]	; 0x8c
 8002e5c:	f8c4 8004 	str.w	r8, [r4, #4]
 8002e60:	3310      	adds	r3, #16
 8002e62:	9323      	str	r3, [sp, #140]	; 0x8c
 8002e64:	9b22      	ldr	r3, [sp, #136]	; 0x88
 8002e66:	3301      	adds	r3, #1
 8002e68:	2b07      	cmp	r3, #7
 8002e6a:	9322      	str	r3, [sp, #136]	; 0x88
 8002e6c:	dc41      	bgt.n	8002ef2 <_svfprintf_r+0xd52>
 8002e6e:	3408      	adds	r4, #8
 8002e70:	3e10      	subs	r6, #16
 8002e72:	e7ee      	b.n	8002e52 <_svfprintf_r+0xcb2>
 8002e74:	aa21      	add	r2, sp, #132	; 0x84
 8002e76:	4649      	mov	r1, r9
 8002e78:	4650      	mov	r0, sl
 8002e7a:	f001 fdfd 	bl	8004a78 <__ssprint_r>
 8002e7e:	2800      	cmp	r0, #0
 8002e80:	f040 80eb 	bne.w	800305a <_svfprintf_r+0xeba>
 8002e84:	ac2e      	add	r4, sp, #184	; 0xb8
 8002e86:	e796      	b.n	8002db6 <_svfprintf_r+0xc16>
 8002e88:	2310      	movs	r3, #16
 8002e8a:	6063      	str	r3, [r4, #4]
 8002e8c:	9b23      	ldr	r3, [sp, #140]	; 0x8c
 8002e8e:	3310      	adds	r3, #16
 8002e90:	9323      	str	r3, [sp, #140]	; 0x8c
 8002e92:	9b22      	ldr	r3, [sp, #136]	; 0x88
 8002e94:	3301      	adds	r3, #1
 8002e96:	2b07      	cmp	r3, #7
 8002e98:	9322      	str	r3, [sp, #136]	; 0x88
 8002e9a:	dc02      	bgt.n	8002ea2 <_svfprintf_r+0xd02>
 8002e9c:	3408      	adds	r4, #8
 8002e9e:	3e10      	subs	r6, #16
 8002ea0:	e791      	b.n	8002dc6 <_svfprintf_r+0xc26>
 8002ea2:	aa21      	add	r2, sp, #132	; 0x84
 8002ea4:	4649      	mov	r1, r9
 8002ea6:	4650      	mov	r0, sl
 8002ea8:	f001 fde6 	bl	8004a78 <__ssprint_r>
 8002eac:	2800      	cmp	r0, #0
 8002eae:	f040 80d4 	bne.w	800305a <_svfprintf_r+0xeba>
 8002eb2:	ac2e      	add	r4, sp, #184	; 0xb8
 8002eb4:	e7f3      	b.n	8002e9e <_svfprintf_r+0xcfe>
 8002eb6:	aa21      	add	r2, sp, #132	; 0x84
 8002eb8:	4649      	mov	r1, r9
 8002eba:	4650      	mov	r0, sl
 8002ebc:	f001 fddc 	bl	8004a78 <__ssprint_r>
 8002ec0:	2800      	cmp	r0, #0
 8002ec2:	f040 80ca 	bne.w	800305a <_svfprintf_r+0xeba>
 8002ec6:	ac2e      	add	r4, sp, #184	; 0xb8
 8002ec8:	e78b      	b.n	8002de2 <_svfprintf_r+0xc42>
 8002eca:	aa21      	add	r2, sp, #132	; 0x84
 8002ecc:	4649      	mov	r1, r9
 8002ece:	4650      	mov	r0, sl
 8002ed0:	f001 fdd2 	bl	8004a78 <__ssprint_r>
 8002ed4:	2800      	cmp	r0, #0
 8002ed6:	f040 80c0 	bne.w	800305a <_svfprintf_r+0xeba>
 8002eda:	ac2e      	add	r4, sp, #184	; 0xb8
 8002edc:	e795      	b.n	8002e0a <_svfprintf_r+0xc6a>
 8002ede:	aa21      	add	r2, sp, #132	; 0x84
 8002ee0:	4649      	mov	r1, r9
 8002ee2:	4650      	mov	r0, sl
 8002ee4:	f001 fdc8 	bl	8004a78 <__ssprint_r>
 8002ee8:	2800      	cmp	r0, #0
 8002eea:	f040 80b6 	bne.w	800305a <_svfprintf_r+0xeba>
 8002eee:	ac2e      	add	r4, sp, #184	; 0xb8
 8002ef0:	e7a1      	b.n	8002e36 <_svfprintf_r+0xc96>
 8002ef2:	aa21      	add	r2, sp, #132	; 0x84
 8002ef4:	4649      	mov	r1, r9
 8002ef6:	4650      	mov	r0, sl
 8002ef8:	f001 fdbe 	bl	8004a78 <__ssprint_r>
 8002efc:	2800      	cmp	r0, #0
 8002efe:	f040 80ac 	bne.w	800305a <_svfprintf_r+0xeba>
 8002f02:	ac2e      	add	r4, sp, #184	; 0xb8
 8002f04:	e7b4      	b.n	8002e70 <_svfprintf_r+0xcd0>
 8002f06:	bf00      	nop
 8002f08:	080054da 	.word	0x080054da
 8002f0c:	080054ec 	.word	0x080054ec
 8002f10:	9b07      	ldr	r3, [sp, #28]
 8002f12:	2b01      	cmp	r3, #1
 8002f14:	dc01      	bgt.n	8002f1a <_svfprintf_r+0xd7a>
 8002f16:	07ea      	lsls	r2, r5, #31
 8002f18:	d576      	bpl.n	8003008 <_svfprintf_r+0xe68>
 8002f1a:	2301      	movs	r3, #1
 8002f1c:	6063      	str	r3, [r4, #4]
 8002f1e:	9b23      	ldr	r3, [sp, #140]	; 0x8c
 8002f20:	f8c4 8000 	str.w	r8, [r4]
 8002f24:	3301      	adds	r3, #1
 8002f26:	9323      	str	r3, [sp, #140]	; 0x8c
 8002f28:	9b22      	ldr	r3, [sp, #136]	; 0x88
 8002f2a:	3301      	adds	r3, #1
 8002f2c:	2b07      	cmp	r3, #7
 8002f2e:	9322      	str	r3, [sp, #136]	; 0x88
 8002f30:	dc36      	bgt.n	8002fa0 <_svfprintf_r+0xe00>
 8002f32:	3408      	adds	r4, #8
 8002f34:	9b11      	ldr	r3, [sp, #68]	; 0x44
 8002f36:	9a0a      	ldr	r2, [sp, #40]	; 0x28
 8002f38:	6023      	str	r3, [r4, #0]
 8002f3a:	9b0a      	ldr	r3, [sp, #40]	; 0x28
 8002f3c:	6063      	str	r3, [r4, #4]
 8002f3e:	9b23      	ldr	r3, [sp, #140]	; 0x8c
 8002f40:	4413      	add	r3, r2
 8002f42:	9323      	str	r3, [sp, #140]	; 0x8c
 8002f44:	9b22      	ldr	r3, [sp, #136]	; 0x88
 8002f46:	3301      	adds	r3, #1
 8002f48:	2b07      	cmp	r3, #7
 8002f4a:	9322      	str	r3, [sp, #136]	; 0x88
 8002f4c:	dc31      	bgt.n	8002fb2 <_svfprintf_r+0xe12>
 8002f4e:	3408      	adds	r4, #8
 8002f50:	9b13      	ldr	r3, [sp, #76]	; 0x4c
 8002f52:	9a12      	ldr	r2, [sp, #72]	; 0x48
 8002f54:	980d      	ldr	r0, [sp, #52]	; 0x34
 8002f56:	990e      	ldr	r1, [sp, #56]	; 0x38
 8002f58:	f7fd fd3a 	bl	80009d0 <__aeabi_dcmpeq>
 8002f5c:	9b07      	ldr	r3, [sp, #28]
 8002f5e:	1e5e      	subs	r6, r3, #1
 8002f60:	2800      	cmp	r0, #0
 8002f62:	d12f      	bne.n	8002fc4 <_svfprintf_r+0xe24>
 8002f64:	f108 0301 	add.w	r3, r8, #1
 8002f68:	e884 0048 	stmia.w	r4, {r3, r6}
 8002f6c:	9b23      	ldr	r3, [sp, #140]	; 0x8c
 8002f6e:	9a07      	ldr	r2, [sp, #28]
 8002f70:	3b01      	subs	r3, #1
 8002f72:	4413      	add	r3, r2
 8002f74:	9323      	str	r3, [sp, #140]	; 0x8c
 8002f76:	9b22      	ldr	r3, [sp, #136]	; 0x88
 8002f78:	3301      	adds	r3, #1
 8002f7a:	2b07      	cmp	r3, #7
 8002f7c:	9322      	str	r3, [sp, #136]	; 0x88
 8002f7e:	dd4a      	ble.n	8003016 <_svfprintf_r+0xe76>
 8002f80:	aa21      	add	r2, sp, #132	; 0x84
 8002f82:	4649      	mov	r1, r9
 8002f84:	4650      	mov	r0, sl
 8002f86:	f001 fd77 	bl	8004a78 <__ssprint_r>
 8002f8a:	2800      	cmp	r0, #0
 8002f8c:	d165      	bne.n	800305a <_svfprintf_r+0xeba>
 8002f8e:	ac2e      	add	r4, sp, #184	; 0xb8
 8002f90:	ab1d      	add	r3, sp, #116	; 0x74
 8002f92:	6023      	str	r3, [r4, #0]
 8002f94:	9b14      	ldr	r3, [sp, #80]	; 0x50
 8002f96:	9a14      	ldr	r2, [sp, #80]	; 0x50
 8002f98:	6063      	str	r3, [r4, #4]
 8002f9a:	9b23      	ldr	r3, [sp, #140]	; 0x8c
 8002f9c:	4413      	add	r3, r2
 8002f9e:	e41c      	b.n	80027da <_svfprintf_r+0x63a>
 8002fa0:	aa21      	add	r2, sp, #132	; 0x84
 8002fa2:	4649      	mov	r1, r9
 8002fa4:	4650      	mov	r0, sl
 8002fa6:	f001 fd67 	bl	8004a78 <__ssprint_r>
 8002faa:	2800      	cmp	r0, #0
 8002fac:	d155      	bne.n	800305a <_svfprintf_r+0xeba>
 8002fae:	ac2e      	add	r4, sp, #184	; 0xb8
 8002fb0:	e7c0      	b.n	8002f34 <_svfprintf_r+0xd94>
 8002fb2:	aa21      	add	r2, sp, #132	; 0x84
 8002fb4:	4649      	mov	r1, r9
 8002fb6:	4650      	mov	r0, sl
 8002fb8:	f001 fd5e 	bl	8004a78 <__ssprint_r>
 8002fbc:	2800      	cmp	r0, #0
 8002fbe:	d14c      	bne.n	800305a <_svfprintf_r+0xeba>
 8002fc0:	ac2e      	add	r4, sp, #184	; 0xb8
 8002fc2:	e7c5      	b.n	8002f50 <_svfprintf_r+0xdb0>
 8002fc4:	2e00      	cmp	r6, #0
 8002fc6:	dde3      	ble.n	8002f90 <_svfprintf_r+0xdf0>
 8002fc8:	f04f 0810 	mov.w	r8, #16
 8002fcc:	4f58      	ldr	r7, [pc, #352]	; (8003130 <_svfprintf_r+0xf90>)
 8002fce:	2e10      	cmp	r6, #16
 8002fd0:	6027      	str	r7, [r4, #0]
 8002fd2:	dc04      	bgt.n	8002fde <_svfprintf_r+0xe3e>
 8002fd4:	9b23      	ldr	r3, [sp, #140]	; 0x8c
 8002fd6:	6066      	str	r6, [r4, #4]
 8002fd8:	441e      	add	r6, r3
 8002fda:	9623      	str	r6, [sp, #140]	; 0x8c
 8002fdc:	e7cb      	b.n	8002f76 <_svfprintf_r+0xdd6>
 8002fde:	9b23      	ldr	r3, [sp, #140]	; 0x8c
 8002fe0:	f8c4 8004 	str.w	r8, [r4, #4]
 8002fe4:	3310      	adds	r3, #16
 8002fe6:	9323      	str	r3, [sp, #140]	; 0x8c
 8002fe8:	9b22      	ldr	r3, [sp, #136]	; 0x88
 8002fea:	3301      	adds	r3, #1
 8002fec:	2b07      	cmp	r3, #7
 8002fee:	9322      	str	r3, [sp, #136]	; 0x88
 8002ff0:	dc02      	bgt.n	8002ff8 <_svfprintf_r+0xe58>
 8002ff2:	3408      	adds	r4, #8
 8002ff4:	3e10      	subs	r6, #16
 8002ff6:	e7ea      	b.n	8002fce <_svfprintf_r+0xe2e>
 8002ff8:	aa21      	add	r2, sp, #132	; 0x84
 8002ffa:	4649      	mov	r1, r9
 8002ffc:	4650      	mov	r0, sl
 8002ffe:	f001 fd3b 	bl	8004a78 <__ssprint_r>
 8003002:	bb50      	cbnz	r0, 800305a <_svfprintf_r+0xeba>
 8003004:	ac2e      	add	r4, sp, #184	; 0xb8
 8003006:	e7f5      	b.n	8002ff4 <_svfprintf_r+0xe54>
 8003008:	2301      	movs	r3, #1
 800300a:	6063      	str	r3, [r4, #4]
 800300c:	9b23      	ldr	r3, [sp, #140]	; 0x8c
 800300e:	f8c4 8000 	str.w	r8, [r4]
 8003012:	3301      	adds	r3, #1
 8003014:	e7ae      	b.n	8002f74 <_svfprintf_r+0xdd4>
 8003016:	3408      	adds	r4, #8
 8003018:	e7ba      	b.n	8002f90 <_svfprintf_r+0xdf0>
 800301a:	3408      	adds	r4, #8
 800301c:	f7ff bbed 	b.w	80027fa <_svfprintf_r+0x65a>
 8003020:	9b0c      	ldr	r3, [sp, #48]	; 0x30
 8003022:	9a0f      	ldr	r2, [sp, #60]	; 0x3c
 8003024:	1a9d      	subs	r5, r3, r2
 8003026:	2d00      	cmp	r5, #0
 8003028:	f77f abea 	ble.w	8002800 <_svfprintf_r+0x660>
 800302c:	2610      	movs	r6, #16
 800302e:	4b41      	ldr	r3, [pc, #260]	; (8003134 <_svfprintf_r+0xf94>)
 8003030:	2d10      	cmp	r5, #16
 8003032:	6023      	str	r3, [r4, #0]
 8003034:	dc1b      	bgt.n	800306e <_svfprintf_r+0xece>
 8003036:	9b23      	ldr	r3, [sp, #140]	; 0x8c
 8003038:	6065      	str	r5, [r4, #4]
 800303a:	441d      	add	r5, r3
 800303c:	9b22      	ldr	r3, [sp, #136]	; 0x88
 800303e:	9523      	str	r5, [sp, #140]	; 0x8c
 8003040:	3301      	adds	r3, #1
 8003042:	2b07      	cmp	r3, #7
 8003044:	9322      	str	r3, [sp, #136]	; 0x88
 8003046:	f77f abdb 	ble.w	8002800 <_svfprintf_r+0x660>
 800304a:	aa21      	add	r2, sp, #132	; 0x84
 800304c:	4649      	mov	r1, r9
 800304e:	4650      	mov	r0, sl
 8003050:	f001 fd12 	bl	8004a78 <__ssprint_r>
 8003054:	2800      	cmp	r0, #0
 8003056:	f43f abd3 	beq.w	8002800 <_svfprintf_r+0x660>
 800305a:	f8b9 300c 	ldrh.w	r3, [r9, #12]
 800305e:	f013 0f40 	tst.w	r3, #64	; 0x40
 8003062:	9b0b      	ldr	r3, [sp, #44]	; 0x2c
 8003064:	bf18      	it	ne
 8003066:	f04f 33ff 	movne.w	r3, #4294967295
 800306a:	f7ff b8bd 	b.w	80021e8 <_svfprintf_r+0x48>
 800306e:	9b23      	ldr	r3, [sp, #140]	; 0x8c
 8003070:	6066      	str	r6, [r4, #4]
 8003072:	3310      	adds	r3, #16
 8003074:	9323      	str	r3, [sp, #140]	; 0x8c
 8003076:	9b22      	ldr	r3, [sp, #136]	; 0x88
 8003078:	3301      	adds	r3, #1
 800307a:	2b07      	cmp	r3, #7
 800307c:	9322      	str	r3, [sp, #136]	; 0x88
 800307e:	dc02      	bgt.n	8003086 <_svfprintf_r+0xee6>
 8003080:	3408      	adds	r4, #8
 8003082:	3d10      	subs	r5, #16
 8003084:	e7d3      	b.n	800302e <_svfprintf_r+0xe8e>
 8003086:	aa21      	add	r2, sp, #132	; 0x84
 8003088:	4649      	mov	r1, r9
 800308a:	4650      	mov	r0, sl
 800308c:	f001 fcf4 	bl	8004a78 <__ssprint_r>
 8003090:	2800      	cmp	r0, #0
 8003092:	d1e2      	bne.n	800305a <_svfprintf_r+0xeba>
 8003094:	ac2e      	add	r4, sp, #184	; 0xb8
 8003096:	e7f4      	b.n	8003082 <_svfprintf_r+0xee2>
 8003098:	9b23      	ldr	r3, [sp, #140]	; 0x8c
 800309a:	2b00      	cmp	r3, #0
 800309c:	d0dd      	beq.n	800305a <_svfprintf_r+0xeba>
 800309e:	aa21      	add	r2, sp, #132	; 0x84
 80030a0:	4649      	mov	r1, r9
 80030a2:	4650      	mov	r0, sl
 80030a4:	f001 fce8 	bl	8004a78 <__ssprint_r>
 80030a8:	e7d7      	b.n	800305a <_svfprintf_r+0xeba>
 80030aa:	9a0d      	ldr	r2, [sp, #52]	; 0x34
 80030ac:	9b0e      	ldr	r3, [sp, #56]	; 0x38
 80030ae:	980d      	ldr	r0, [sp, #52]	; 0x34
 80030b0:	990e      	ldr	r1, [sp, #56]	; 0x38
 80030b2:	f7fd fcbf 	bl	8000a34 <__aeabi_dcmpun>
 80030b6:	2800      	cmp	r0, #0
 80030b8:	f43f aa3d 	beq.w	8002536 <_svfprintf_r+0x396>
 80030bc:	4b1e      	ldr	r3, [pc, #120]	; (8003138 <_svfprintf_r+0xf98>)
 80030be:	4a1f      	ldr	r2, [pc, #124]	; (800313c <_svfprintf_r+0xf9c>)
 80030c0:	f7ff ba2d 	b.w	800251e <_svfprintf_r+0x37e>
 80030c4:	9b1f      	ldr	r3, [sp, #124]	; 0x7c
 80030c6:	eba3 0308 	sub.w	r3, r3, r8
 80030ca:	9307      	str	r3, [sp, #28]
 80030cc:	f7ff baaf 	b.w	800262e <_svfprintf_r+0x48e>
 80030d0:	ea56 0207 	orrs.w	r2, r6, r7
 80030d4:	950f      	str	r5, [sp, #60]	; 0x3c
 80030d6:	f43f ac2b 	beq.w	8002930 <_svfprintf_r+0x790>
 80030da:	2b01      	cmp	r3, #1
 80030dc:	f43f ac9d 	beq.w	8002a1a <_svfprintf_r+0x87a>
 80030e0:	2b02      	cmp	r3, #2
 80030e2:	f43f acbd 	beq.w	8002a60 <_svfprintf_r+0x8c0>
 80030e6:	ab2e      	add	r3, sp, #184	; 0xb8
 80030e8:	08f1      	lsrs	r1, r6, #3
 80030ea:	ea41 7147 	orr.w	r1, r1, r7, lsl #29
 80030ee:	08f8      	lsrs	r0, r7, #3
 80030f0:	f006 0207 	and.w	r2, r6, #7
 80030f4:	4607      	mov	r7, r0
 80030f6:	460e      	mov	r6, r1
 80030f8:	3230      	adds	r2, #48	; 0x30
 80030fa:	ea56 0107 	orrs.w	r1, r6, r7
 80030fe:	f103 38ff 	add.w	r8, r3, #4294967295
 8003102:	f803 2c01 	strb.w	r2, [r3, #-1]
 8003106:	f47f ac86 	bne.w	8002a16 <_svfprintf_r+0x876>
 800310a:	990f      	ldr	r1, [sp, #60]	; 0x3c
 800310c:	07c9      	lsls	r1, r1, #31
 800310e:	d506      	bpl.n	800311e <_svfprintf_r+0xf7e>
 8003110:	2a30      	cmp	r2, #48	; 0x30
 8003112:	d004      	beq.n	800311e <_svfprintf_r+0xf7e>
 8003114:	2230      	movs	r2, #48	; 0x30
 8003116:	f808 2c01 	strb.w	r2, [r8, #-1]
 800311a:	f1a3 0802 	sub.w	r8, r3, #2
 800311e:	ab2e      	add	r3, sp, #184	; 0xb8
 8003120:	465e      	mov	r6, fp
 8003122:	9d0f      	ldr	r5, [sp, #60]	; 0x3c
 8003124:	eba3 0b08 	sub.w	fp, r3, r8
 8003128:	2700      	movs	r7, #0
 800312a:	f7ff bace 	b.w	80026ca <_svfprintf_r+0x52a>
 800312e:	bf00      	nop
 8003130:	080054ec 	.word	0x080054ec
 8003134:	080054dc 	.word	0x080054dc
 8003138:	080054b0 	.word	0x080054b0
 800313c:	080054b4 	.word	0x080054b4

08003140 <quorem>:
 8003140:	e92d 4ff7 	stmdb	sp!, {r0, r1, r2, r4, r5, r6, r7, r8, r9, sl, fp, lr}
 8003144:	6903      	ldr	r3, [r0, #16]
 8003146:	690c      	ldr	r4, [r1, #16]
 8003148:	4680      	mov	r8, r0
 800314a:	429c      	cmp	r4, r3
 800314c:	f300 8082 	bgt.w	8003254 <quorem+0x114>
 8003150:	3c01      	subs	r4, #1
 8003152:	f101 0714 	add.w	r7, r1, #20
 8003156:	f100 0614 	add.w	r6, r0, #20
 800315a:	f857 5024 	ldr.w	r5, [r7, r4, lsl #2]
 800315e:	f856 0024 	ldr.w	r0, [r6, r4, lsl #2]
 8003162:	3501      	adds	r5, #1
 8003164:	fbb0 f5f5 	udiv	r5, r0, r5
 8003168:	ea4f 0e84 	mov.w	lr, r4, lsl #2
 800316c:	eb06 030e 	add.w	r3, r6, lr
 8003170:	eb07 090e 	add.w	r9, r7, lr
 8003174:	9301      	str	r3, [sp, #4]
 8003176:	b38d      	cbz	r5, 80031dc <quorem+0x9c>
 8003178:	f04f 0a00 	mov.w	sl, #0
 800317c:	4638      	mov	r0, r7
 800317e:	46b4      	mov	ip, r6
 8003180:	46d3      	mov	fp, sl
 8003182:	f850 2b04 	ldr.w	r2, [r0], #4
 8003186:	b293      	uxth	r3, r2
 8003188:	fb05 a303 	mla	r3, r5, r3, sl
 800318c:	0c12      	lsrs	r2, r2, #16
 800318e:	ea4f 4a13 	mov.w	sl, r3, lsr #16
 8003192:	fb05 a202 	mla	r2, r5, r2, sl
 8003196:	b29b      	uxth	r3, r3
 8003198:	ebab 0303 	sub.w	r3, fp, r3
 800319c:	f8bc b000 	ldrh.w	fp, [ip]
 80031a0:	ea4f 4a12 	mov.w	sl, r2, lsr #16
 80031a4:	445b      	add	r3, fp
 80031a6:	fa1f fb82 	uxth.w	fp, r2
 80031aa:	f8dc 2000 	ldr.w	r2, [ip]
 80031ae:	4581      	cmp	r9, r0
 80031b0:	ebcb 4212 	rsb	r2, fp, r2, lsr #16
 80031b4:	eb02 4223 	add.w	r2, r2, r3, asr #16
 80031b8:	b29b      	uxth	r3, r3
 80031ba:	ea43 4302 	orr.w	r3, r3, r2, lsl #16
 80031be:	ea4f 4b22 	mov.w	fp, r2, asr #16
 80031c2:	f84c 3b04 	str.w	r3, [ip], #4
 80031c6:	d2dc      	bcs.n	8003182 <quorem+0x42>
 80031c8:	f856 300e 	ldr.w	r3, [r6, lr]
 80031cc:	b933      	cbnz	r3, 80031dc <quorem+0x9c>
 80031ce:	9b01      	ldr	r3, [sp, #4]
 80031d0:	3b04      	subs	r3, #4
 80031d2:	429e      	cmp	r6, r3
 80031d4:	461a      	mov	r2, r3
 80031d6:	d331      	bcc.n	800323c <quorem+0xfc>
 80031d8:	f8c8 4010 	str.w	r4, [r8, #16]
 80031dc:	4640      	mov	r0, r8
 80031de:	f001 fb72 	bl	80048c6 <__mcmp>
 80031e2:	2800      	cmp	r0, #0
 80031e4:	db26      	blt.n	8003234 <quorem+0xf4>
 80031e6:	4630      	mov	r0, r6
 80031e8:	f04f 0e00 	mov.w	lr, #0
 80031ec:	3501      	adds	r5, #1
 80031ee:	f857 1b04 	ldr.w	r1, [r7], #4
 80031f2:	f8d0 c000 	ldr.w	ip, [r0]
 80031f6:	b28b      	uxth	r3, r1
 80031f8:	ebae 0303 	sub.w	r3, lr, r3
 80031fc:	fa1f f28c 	uxth.w	r2, ip
 8003200:	4413      	add	r3, r2
 8003202:	0c0a      	lsrs	r2, r1, #16
 8003204:	ebc2 421c 	rsb	r2, r2, ip, lsr #16
 8003208:	eb02 4223 	add.w	r2, r2, r3, asr #16
 800320c:	b29b      	uxth	r3, r3
 800320e:	ea43 4302 	orr.w	r3, r3, r2, lsl #16
 8003212:	45b9      	cmp	r9, r7
 8003214:	ea4f 4e22 	mov.w	lr, r2, asr #16
 8003218:	f840 3b04 	str.w	r3, [r0], #4
 800321c:	d2e7      	bcs.n	80031ee <quorem+0xae>
 800321e:	f856 2024 	ldr.w	r2, [r6, r4, lsl #2]
 8003222:	eb06 0384 	add.w	r3, r6, r4, lsl #2
 8003226:	b92a      	cbnz	r2, 8003234 <quorem+0xf4>
 8003228:	3b04      	subs	r3, #4
 800322a:	429e      	cmp	r6, r3
 800322c:	461a      	mov	r2, r3
 800322e:	d30b      	bcc.n	8003248 <quorem+0x108>
 8003230:	f8c8 4010 	str.w	r4, [r8, #16]
 8003234:	4628      	mov	r0, r5
 8003236:	b003      	add	sp, #12
 8003238:	e8bd 8ff0 	ldmia.w	sp!, {r4, r5, r6, r7, r8, r9, sl, fp, pc}
 800323c:	6812      	ldr	r2, [r2, #0]
 800323e:	3b04      	subs	r3, #4
 8003240:	2a00      	cmp	r2, #0
 8003242:	d1c9      	bne.n	80031d8 <quorem+0x98>
 8003244:	3c01      	subs	r4, #1
 8003246:	e7c4      	b.n	80031d2 <quorem+0x92>
 8003248:	6812      	ldr	r2, [r2, #0]
 800324a:	3b04      	subs	r3, #4
 800324c:	2a00      	cmp	r2, #0
 800324e:	d1ef      	bne.n	8003230 <quorem+0xf0>
 8003250:	3c01      	subs	r4, #1
 8003252:	e7ea      	b.n	800322a <quorem+0xea>
 8003254:	2000      	movs	r0, #0
 8003256:	e7ee      	b.n	8003236 <quorem+0xf6>

08003258 <_dtoa_r>:
 8003258:	e92d 4ff0 	stmdb	sp!, {r4, r5, r6, r7, r8, r9, sl, fp, lr}
 800325c:	6a46      	ldr	r6, [r0, #36]	; 0x24
 800325e:	b095      	sub	sp, #84	; 0x54
 8003260:	4604      	mov	r4, r0
 8003262:	9d21      	ldr	r5, [sp, #132]	; 0x84
 8003264:	e9cd 2302 	strd	r2, r3, [sp, #8]
 8003268:	b93e      	cbnz	r6, 800327a <_dtoa_r+0x22>
 800326a:	2010      	movs	r0, #16
 800326c:	f000 fee8 	bl	8004040 <malloc>
 8003270:	6260      	str	r0, [r4, #36]	; 0x24
 8003272:	6046      	str	r6, [r0, #4]
 8003274:	6086      	str	r6, [r0, #8]
 8003276:	6006      	str	r6, [r0, #0]
 8003278:	60c6      	str	r6, [r0, #12]
 800327a:	6a63      	ldr	r3, [r4, #36]	; 0x24
 800327c:	6819      	ldr	r1, [r3, #0]
 800327e:	b151      	cbz	r1, 8003296 <_dtoa_r+0x3e>
 8003280:	685a      	ldr	r2, [r3, #4]
 8003282:	2301      	movs	r3, #1
 8003284:	4093      	lsls	r3, r2
 8003286:	604a      	str	r2, [r1, #4]
 8003288:	608b      	str	r3, [r1, #8]
 800328a:	4620      	mov	r0, r4
 800328c:	f001 f946 	bl	800451c <_Bfree>
 8003290:	2200      	movs	r2, #0
 8003292:	6a63      	ldr	r3, [r4, #36]	; 0x24
 8003294:	601a      	str	r2, [r3, #0]
 8003296:	9b03      	ldr	r3, [sp, #12]
 8003298:	2b00      	cmp	r3, #0
 800329a:	bfb7      	itett	lt
 800329c:	2301      	movlt	r3, #1
 800329e:	2300      	movge	r3, #0
 80032a0:	602b      	strlt	r3, [r5, #0]
 80032a2:	9b03      	ldrlt	r3, [sp, #12]
 80032a4:	bfae      	itee	ge
 80032a6:	602b      	strge	r3, [r5, #0]
 80032a8:	f023 4300 	biclt.w	r3, r3, #2147483648	; 0x80000000
 80032ac:	9303      	strlt	r3, [sp, #12]
 80032ae:	f8dd 900c 	ldr.w	r9, [sp, #12]
 80032b2:	4bab      	ldr	r3, [pc, #684]	; (8003560 <_dtoa_r+0x308>)
 80032b4:	ea33 0309 	bics.w	r3, r3, r9
 80032b8:	d11b      	bne.n	80032f2 <_dtoa_r+0x9a>
 80032ba:	f242 730f 	movw	r3, #9999	; 0x270f
 80032be:	9a20      	ldr	r2, [sp, #128]	; 0x80
 80032c0:	6013      	str	r3, [r2, #0]
 80032c2:	9b02      	ldr	r3, [sp, #8]
 80032c4:	b923      	cbnz	r3, 80032d0 <_dtoa_r+0x78>
 80032c6:	f3c9 0013 	ubfx	r0, r9, #0, #20
 80032ca:	2800      	cmp	r0, #0
 80032cc:	f000 8583 	beq.w	8003dd6 <_dtoa_r+0xb7e>
 80032d0:	9b22      	ldr	r3, [sp, #136]	; 0x88
 80032d2:	b953      	cbnz	r3, 80032ea <_dtoa_r+0x92>
 80032d4:	4ba3      	ldr	r3, [pc, #652]	; (8003564 <_dtoa_r+0x30c>)
 80032d6:	e021      	b.n	800331c <_dtoa_r+0xc4>
 80032d8:	4ba3      	ldr	r3, [pc, #652]	; (8003568 <_dtoa_r+0x310>)
 80032da:	9306      	str	r3, [sp, #24]
 80032dc:	3308      	adds	r3, #8
 80032de:	9a22      	ldr	r2, [sp, #136]	; 0x88
 80032e0:	6013      	str	r3, [r2, #0]
 80032e2:	9806      	ldr	r0, [sp, #24]
 80032e4:	b015      	add	sp, #84	; 0x54
 80032e6:	e8bd 8ff0 	ldmia.w	sp!, {r4, r5, r6, r7, r8, r9, sl, fp, pc}
 80032ea:	4b9e      	ldr	r3, [pc, #632]	; (8003564 <_dtoa_r+0x30c>)
 80032ec:	9306      	str	r3, [sp, #24]
 80032ee:	3303      	adds	r3, #3
 80032f0:	e7f5      	b.n	80032de <_dtoa_r+0x86>
 80032f2:	e9dd 6702 	ldrd	r6, r7, [sp, #8]
 80032f6:	2200      	movs	r2, #0
 80032f8:	2300      	movs	r3, #0
 80032fa:	4630      	mov	r0, r6
 80032fc:	4639      	mov	r1, r7
 80032fe:	f7fd fb67 	bl	80009d0 <__aeabi_dcmpeq>
 8003302:	4680      	mov	r8, r0
 8003304:	b160      	cbz	r0, 8003320 <_dtoa_r+0xc8>
 8003306:	2301      	movs	r3, #1
 8003308:	9a20      	ldr	r2, [sp, #128]	; 0x80
 800330a:	6013      	str	r3, [r2, #0]
 800330c:	9b22      	ldr	r3, [sp, #136]	; 0x88
 800330e:	2b00      	cmp	r3, #0
 8003310:	f000 855e 	beq.w	8003dd0 <_dtoa_r+0xb78>
 8003314:	4b95      	ldr	r3, [pc, #596]	; (800356c <_dtoa_r+0x314>)
 8003316:	9a22      	ldr	r2, [sp, #136]	; 0x88
 8003318:	6013      	str	r3, [r2, #0]
 800331a:	3b01      	subs	r3, #1
 800331c:	9306      	str	r3, [sp, #24]
 800331e:	e7e0      	b.n	80032e2 <_dtoa_r+0x8a>
 8003320:	ab12      	add	r3, sp, #72	; 0x48
 8003322:	9301      	str	r3, [sp, #4]
 8003324:	ab13      	add	r3, sp, #76	; 0x4c
 8003326:	9300      	str	r3, [sp, #0]
 8003328:	4632      	mov	r2, r6
 800332a:	463b      	mov	r3, r7
 800332c:	4620      	mov	r0, r4
 800332e:	f001 fb43 	bl	80049b8 <__d2b>
 8003332:	f3c9 550a 	ubfx	r5, r9, #20, #11
 8003336:	4682      	mov	sl, r0
 8003338:	2d00      	cmp	r5, #0
 800333a:	d07d      	beq.n	8003438 <_dtoa_r+0x1e0>
 800333c:	4630      	mov	r0, r6
 800333e:	f3c7 0313 	ubfx	r3, r7, #0, #20
 8003342:	f043 517f 	orr.w	r1, r3, #1069547520	; 0x3fc00000
 8003346:	f441 1140 	orr.w	r1, r1, #3145728	; 0x300000
 800334a:	f2a5 35ff 	subw	r5, r5, #1023	; 0x3ff
 800334e:	f8cd 8040 	str.w	r8, [sp, #64]	; 0x40
 8003352:	2200      	movs	r2, #0
 8003354:	4b86      	ldr	r3, [pc, #536]	; (8003570 <_dtoa_r+0x318>)
 8003356:	f7fc ff1f 	bl	8000198 <__aeabi_dsub>
 800335a:	a37b      	add	r3, pc, #492	; (adr r3, 8003548 <_dtoa_r+0x2f0>)
 800335c:	e9d3 2300 	ldrd	r2, r3, [r3]
 8003360:	f7fd f8ce 	bl	8000500 <__aeabi_dmul>
 8003364:	a37a      	add	r3, pc, #488	; (adr r3, 8003550 <_dtoa_r+0x2f8>)
 8003366:	e9d3 2300 	ldrd	r2, r3, [r3]
 800336a:	f7fc ff17 	bl	800019c <__adddf3>
 800336e:	4606      	mov	r6, r0
 8003370:	4628      	mov	r0, r5
 8003372:	460f      	mov	r7, r1
 8003374:	f7fd f85e 	bl	8000434 <__aeabi_i2d>
 8003378:	a377      	add	r3, pc, #476	; (adr r3, 8003558 <_dtoa_r+0x300>)
 800337a:	e9d3 2300 	ldrd	r2, r3, [r3]
 800337e:	f7fd f8bf 	bl	8000500 <__aeabi_dmul>
 8003382:	4602      	mov	r2, r0
 8003384:	460b      	mov	r3, r1
 8003386:	4630      	mov	r0, r6
 8003388:	4639      	mov	r1, r7
 800338a:	f7fc ff07 	bl	800019c <__adddf3>
 800338e:	4606      	mov	r6, r0
 8003390:	460f      	mov	r7, r1
 8003392:	f7fd fb65 	bl	8000a60 <__aeabi_d2iz>
 8003396:	2200      	movs	r2, #0
 8003398:	4683      	mov	fp, r0
 800339a:	2300      	movs	r3, #0
 800339c:	4630      	mov	r0, r6
 800339e:	4639      	mov	r1, r7
 80033a0:	f7fd fb20 	bl	80009e4 <__aeabi_dcmplt>
 80033a4:	b158      	cbz	r0, 80033be <_dtoa_r+0x166>
 80033a6:	4658      	mov	r0, fp
 80033a8:	f7fd f844 	bl	8000434 <__aeabi_i2d>
 80033ac:	4602      	mov	r2, r0
 80033ae:	460b      	mov	r3, r1
 80033b0:	4630      	mov	r0, r6
 80033b2:	4639      	mov	r1, r7
 80033b4:	f7fd fb0c 	bl	80009d0 <__aeabi_dcmpeq>
 80033b8:	b908      	cbnz	r0, 80033be <_dtoa_r+0x166>
 80033ba:	f10b 3bff 	add.w	fp, fp, #4294967295
 80033be:	f1bb 0f16 	cmp.w	fp, #22
 80033c2:	d858      	bhi.n	8003476 <_dtoa_r+0x21e>
 80033c4:	e9dd 2302 	ldrd	r2, r3, [sp, #8]
 80033c8:	496a      	ldr	r1, [pc, #424]	; (8003574 <_dtoa_r+0x31c>)
 80033ca:	eb01 01cb 	add.w	r1, r1, fp, lsl #3
 80033ce:	e9d1 0100 	ldrd	r0, r1, [r1]
 80033d2:	f7fd fb25 	bl	8000a20 <__aeabi_dcmpgt>
 80033d6:	2800      	cmp	r0, #0
 80033d8:	d04f      	beq.n	800347a <_dtoa_r+0x222>
 80033da:	2300      	movs	r3, #0
 80033dc:	f10b 3bff 	add.w	fp, fp, #4294967295
 80033e0:	930d      	str	r3, [sp, #52]	; 0x34
 80033e2:	9b12      	ldr	r3, [sp, #72]	; 0x48
 80033e4:	1b5d      	subs	r5, r3, r5
 80033e6:	1e6b      	subs	r3, r5, #1
 80033e8:	9307      	str	r3, [sp, #28]
 80033ea:	bf43      	ittte	mi
 80033ec:	2300      	movmi	r3, #0
 80033ee:	f1c5 0801 	rsbmi	r8, r5, #1
 80033f2:	9307      	strmi	r3, [sp, #28]
 80033f4:	f04f 0800 	movpl.w	r8, #0
 80033f8:	f1bb 0f00 	cmp.w	fp, #0
 80033fc:	db3f      	blt.n	800347e <_dtoa_r+0x226>
 80033fe:	9b07      	ldr	r3, [sp, #28]
 8003400:	f8cd b030 	str.w	fp, [sp, #48]	; 0x30
 8003404:	445b      	add	r3, fp
 8003406:	9307      	str	r3, [sp, #28]
 8003408:	2300      	movs	r3, #0
 800340a:	9308      	str	r3, [sp, #32]
 800340c:	9b1e      	ldr	r3, [sp, #120]	; 0x78
 800340e:	2b09      	cmp	r3, #9
 8003410:	f200 80b4 	bhi.w	800357c <_dtoa_r+0x324>
 8003414:	2b05      	cmp	r3, #5
 8003416:	bfc4      	itt	gt
 8003418:	3b04      	subgt	r3, #4
 800341a:	931e      	strgt	r3, [sp, #120]	; 0x78
 800341c:	9b1e      	ldr	r3, [sp, #120]	; 0x78
 800341e:	bfc8      	it	gt
 8003420:	2600      	movgt	r6, #0
 8003422:	f1a3 0302 	sub.w	r3, r3, #2
 8003426:	bfd8      	it	le
 8003428:	2601      	movle	r6, #1
 800342a:	2b03      	cmp	r3, #3
 800342c:	f200 80b2 	bhi.w	8003594 <_dtoa_r+0x33c>
 8003430:	e8df f003 	tbb	[pc, r3]
 8003434:	782d8684 	.word	0x782d8684
 8003438:	9b13      	ldr	r3, [sp, #76]	; 0x4c
 800343a:	9d12      	ldr	r5, [sp, #72]	; 0x48
 800343c:	441d      	add	r5, r3
 800343e:	f205 4332 	addw	r3, r5, #1074	; 0x432
 8003442:	2b20      	cmp	r3, #32
 8003444:	dd11      	ble.n	800346a <_dtoa_r+0x212>
 8003446:	9a02      	ldr	r2, [sp, #8]
 8003448:	f205 4012 	addw	r0, r5, #1042	; 0x412
 800344c:	f1c3 0340 	rsb	r3, r3, #64	; 0x40
 8003450:	fa22 f000 	lsr.w	r0, r2, r0
 8003454:	fa09 f303 	lsl.w	r3, r9, r3
 8003458:	4318      	orrs	r0, r3
 800345a:	f7fc ffdb 	bl	8000414 <__aeabi_ui2d>
 800345e:	2301      	movs	r3, #1
 8003460:	f1a1 71f8 	sub.w	r1, r1, #32505856	; 0x1f00000
 8003464:	3d01      	subs	r5, #1
 8003466:	9310      	str	r3, [sp, #64]	; 0x40
 8003468:	e773      	b.n	8003352 <_dtoa_r+0xfa>
 800346a:	f1c3 0020 	rsb	r0, r3, #32
 800346e:	9b02      	ldr	r3, [sp, #8]
 8003470:	fa03 f000 	lsl.w	r0, r3, r0
 8003474:	e7f1      	b.n	800345a <_dtoa_r+0x202>
 8003476:	2301      	movs	r3, #1
 8003478:	e7b2      	b.n	80033e0 <_dtoa_r+0x188>
 800347a:	900d      	str	r0, [sp, #52]	; 0x34
 800347c:	e7b1      	b.n	80033e2 <_dtoa_r+0x18a>
 800347e:	f1cb 0300 	rsb	r3, fp, #0
 8003482:	9308      	str	r3, [sp, #32]
 8003484:	2300      	movs	r3, #0
 8003486:	eba8 080b 	sub.w	r8, r8, fp
 800348a:	930c      	str	r3, [sp, #48]	; 0x30
 800348c:	e7be      	b.n	800340c <_dtoa_r+0x1b4>
 800348e:	2301      	movs	r3, #1
 8003490:	9309      	str	r3, [sp, #36]	; 0x24
 8003492:	9b1f      	ldr	r3, [sp, #124]	; 0x7c
 8003494:	2b00      	cmp	r3, #0
 8003496:	f340 8080 	ble.w	800359a <_dtoa_r+0x342>
 800349a:	4699      	mov	r9, r3
 800349c:	9304      	str	r3, [sp, #16]
 800349e:	2200      	movs	r2, #0
 80034a0:	2104      	movs	r1, #4
 80034a2:	6a65      	ldr	r5, [r4, #36]	; 0x24
 80034a4:	606a      	str	r2, [r5, #4]
 80034a6:	f101 0214 	add.w	r2, r1, #20
 80034aa:	429a      	cmp	r2, r3
 80034ac:	d97a      	bls.n	80035a4 <_dtoa_r+0x34c>
 80034ae:	6869      	ldr	r1, [r5, #4]
 80034b0:	4620      	mov	r0, r4
 80034b2:	f000 ffff 	bl	80044b4 <_Balloc>
 80034b6:	6a63      	ldr	r3, [r4, #36]	; 0x24
 80034b8:	6028      	str	r0, [r5, #0]
 80034ba:	681b      	ldr	r3, [r3, #0]
 80034bc:	f1b9 0f0e 	cmp.w	r9, #14
 80034c0:	9306      	str	r3, [sp, #24]
 80034c2:	f200 80f0 	bhi.w	80036a6 <_dtoa_r+0x44e>
 80034c6:	2e00      	cmp	r6, #0
 80034c8:	f000 80ed 	beq.w	80036a6 <_dtoa_r+0x44e>
 80034cc:	e9dd 2302 	ldrd	r2, r3, [sp, #8]
 80034d0:	f1bb 0f00 	cmp.w	fp, #0
 80034d4:	e9cd 230e 	strd	r2, r3, [sp, #56]	; 0x38
 80034d8:	dd79      	ble.n	80035ce <_dtoa_r+0x376>
 80034da:	4a26      	ldr	r2, [pc, #152]	; (8003574 <_dtoa_r+0x31c>)
 80034dc:	f00b 030f 	and.w	r3, fp, #15
 80034e0:	ea4f 162b 	mov.w	r6, fp, asr #4
 80034e4:	eb02 03c3 	add.w	r3, r2, r3, lsl #3
 80034e8:	06f0      	lsls	r0, r6, #27
 80034ea:	e9d3 2300 	ldrd	r2, r3, [r3]
 80034ee:	e9cd 230a 	strd	r2, r3, [sp, #40]	; 0x28
 80034f2:	d55c      	bpl.n	80035ae <_dtoa_r+0x356>
 80034f4:	e9dd 010e 	ldrd	r0, r1, [sp, #56]	; 0x38
 80034f8:	4b1f      	ldr	r3, [pc, #124]	; (8003578 <_dtoa_r+0x320>)
 80034fa:	2503      	movs	r5, #3
 80034fc:	e9d3 2308 	ldrd	r2, r3, [r3, #32]
 8003500:	f7fd f928 	bl	8000754 <__aeabi_ddiv>
 8003504:	e9cd 0102 	strd	r0, r1, [sp, #8]
 8003508:	f006 060f 	and.w	r6, r6, #15
 800350c:	4f1a      	ldr	r7, [pc, #104]	; (8003578 <_dtoa_r+0x320>)
 800350e:	2e00      	cmp	r6, #0
 8003510:	d14f      	bne.n	80035b2 <_dtoa_r+0x35a>
 8003512:	e9dd 230a 	ldrd	r2, r3, [sp, #40]	; 0x28
 8003516:	e9dd 0102 	ldrd	r0, r1, [sp, #8]
 800351a:	f7fd f91b 	bl	8000754 <__aeabi_ddiv>
 800351e:	e9cd 0102 	strd	r0, r1, [sp, #8]
 8003522:	e06e      	b.n	8003602 <_dtoa_r+0x3aa>
 8003524:	2301      	movs	r3, #1
 8003526:	9309      	str	r3, [sp, #36]	; 0x24
 8003528:	9b1f      	ldr	r3, [sp, #124]	; 0x7c
 800352a:	445b      	add	r3, fp
 800352c:	f103 0901 	add.w	r9, r3, #1
 8003530:	9304      	str	r3, [sp, #16]
 8003532:	464b      	mov	r3, r9
 8003534:	2b01      	cmp	r3, #1
 8003536:	bfb8      	it	lt
 8003538:	2301      	movlt	r3, #1
 800353a:	e7b0      	b.n	800349e <_dtoa_r+0x246>
 800353c:	2300      	movs	r3, #0
 800353e:	e7a7      	b.n	8003490 <_dtoa_r+0x238>
 8003540:	2300      	movs	r3, #0
 8003542:	e7f0      	b.n	8003526 <_dtoa_r+0x2ce>
 8003544:	f3af 8000 	nop.w
 8003548:	636f4361 	.word	0x636f4361
 800354c:	3fd287a7 	.word	0x3fd287a7
 8003550:	8b60c8b3 	.word	0x8b60c8b3
 8003554:	3fc68a28 	.word	0x3fc68a28
 8003558:	509f79fb 	.word	0x509f79fb
 800355c:	3fd34413 	.word	0x3fd34413
 8003560:	7ff00000 	.word	0x7ff00000
 8003564:	08005505 	.word	0x08005505
 8003568:	080054fc 	.word	0x080054fc
 800356c:	080054db 	.word	0x080054db
 8003570:	3ff80000 	.word	0x3ff80000
 8003574:	08005538 	.word	0x08005538
 8003578:	08005510 	.word	0x08005510
 800357c:	2601      	movs	r6, #1
 800357e:	2300      	movs	r3, #0
 8003580:	9609      	str	r6, [sp, #36]	; 0x24
 8003582:	931e      	str	r3, [sp, #120]	; 0x78
 8003584:	f04f 33ff 	mov.w	r3, #4294967295
 8003588:	2200      	movs	r2, #0
 800358a:	9304      	str	r3, [sp, #16]
 800358c:	4699      	mov	r9, r3
 800358e:	2312      	movs	r3, #18
 8003590:	921f      	str	r2, [sp, #124]	; 0x7c
 8003592:	e784      	b.n	800349e <_dtoa_r+0x246>
 8003594:	2301      	movs	r3, #1
 8003596:	9309      	str	r3, [sp, #36]	; 0x24
 8003598:	e7f4      	b.n	8003584 <_dtoa_r+0x32c>
 800359a:	2301      	movs	r3, #1
 800359c:	9304      	str	r3, [sp, #16]
 800359e:	4699      	mov	r9, r3
 80035a0:	461a      	mov	r2, r3
 80035a2:	e7f5      	b.n	8003590 <_dtoa_r+0x338>
 80035a4:	686a      	ldr	r2, [r5, #4]
 80035a6:	0049      	lsls	r1, r1, #1
 80035a8:	3201      	adds	r2, #1
 80035aa:	606a      	str	r2, [r5, #4]
 80035ac:	e77b      	b.n	80034a6 <_dtoa_r+0x24e>
 80035ae:	2502      	movs	r5, #2
 80035b0:	e7ac      	b.n	800350c <_dtoa_r+0x2b4>
 80035b2:	07f1      	lsls	r1, r6, #31
 80035b4:	d508      	bpl.n	80035c8 <_dtoa_r+0x370>
 80035b6:	e9dd 010a 	ldrd	r0, r1, [sp, #40]	; 0x28
 80035ba:	e9d7 2300 	ldrd	r2, r3, [r7]
 80035be:	f7fc ff9f 	bl	8000500 <__aeabi_dmul>
 80035c2:	e9cd 010a 	strd	r0, r1, [sp, #40]	; 0x28
 80035c6:	3501      	adds	r5, #1
 80035c8:	1076      	asrs	r6, r6, #1
 80035ca:	3708      	adds	r7, #8
 80035cc:	e79f      	b.n	800350e <_dtoa_r+0x2b6>
 80035ce:	f000 80a5 	beq.w	800371c <_dtoa_r+0x4c4>
 80035d2:	e9dd 010e 	ldrd	r0, r1, [sp, #56]	; 0x38
 80035d6:	f1cb 0600 	rsb	r6, fp, #0
 80035da:	4ba2      	ldr	r3, [pc, #648]	; (8003864 <_dtoa_r+0x60c>)
 80035dc:	f006 020f 	and.w	r2, r6, #15
 80035e0:	eb03 03c2 	add.w	r3, r3, r2, lsl #3
 80035e4:	e9d3 2300 	ldrd	r2, r3, [r3]
 80035e8:	f7fc ff8a 	bl	8000500 <__aeabi_dmul>
 80035ec:	2502      	movs	r5, #2
 80035ee:	2300      	movs	r3, #0
 80035f0:	e9cd 0102 	strd	r0, r1, [sp, #8]
 80035f4:	4f9c      	ldr	r7, [pc, #624]	; (8003868 <_dtoa_r+0x610>)
 80035f6:	1136      	asrs	r6, r6, #4
 80035f8:	2e00      	cmp	r6, #0
 80035fa:	f040 8084 	bne.w	8003706 <_dtoa_r+0x4ae>
 80035fe:	2b00      	cmp	r3, #0
 8003600:	d18d      	bne.n	800351e <_dtoa_r+0x2c6>
 8003602:	9b0d      	ldr	r3, [sp, #52]	; 0x34
 8003604:	2b00      	cmp	r3, #0
 8003606:	f000 808b 	beq.w	8003720 <_dtoa_r+0x4c8>
 800360a:	e9dd 2302 	ldrd	r2, r3, [sp, #8]
 800360e:	e9cd 230a 	strd	r2, r3, [sp, #40]	; 0x28
 8003612:	e9dd 010a 	ldrd	r0, r1, [sp, #40]	; 0x28
 8003616:	2200      	movs	r2, #0
 8003618:	4b94      	ldr	r3, [pc, #592]	; (800386c <_dtoa_r+0x614>)
 800361a:	f7fd f9e3 	bl	80009e4 <__aeabi_dcmplt>
 800361e:	2800      	cmp	r0, #0
 8003620:	d07e      	beq.n	8003720 <_dtoa_r+0x4c8>
 8003622:	f1b9 0f00 	cmp.w	r9, #0
 8003626:	d07b      	beq.n	8003720 <_dtoa_r+0x4c8>
 8003628:	9b04      	ldr	r3, [sp, #16]
 800362a:	2b00      	cmp	r3, #0
 800362c:	dd37      	ble.n	800369e <_dtoa_r+0x446>
 800362e:	e9dd 010a 	ldrd	r0, r1, [sp, #40]	; 0x28
 8003632:	2200      	movs	r2, #0
 8003634:	4b8e      	ldr	r3, [pc, #568]	; (8003870 <_dtoa_r+0x618>)
 8003636:	f7fc ff63 	bl	8000500 <__aeabi_dmul>
 800363a:	e9cd 0102 	strd	r0, r1, [sp, #8]
 800363e:	9e04      	ldr	r6, [sp, #16]
 8003640:	f10b 37ff 	add.w	r7, fp, #4294967295
 8003644:	3501      	adds	r5, #1
 8003646:	4628      	mov	r0, r5
 8003648:	f7fc fef4 	bl	8000434 <__aeabi_i2d>
 800364c:	e9dd 2302 	ldrd	r2, r3, [sp, #8]
 8003650:	f7fc ff56 	bl	8000500 <__aeabi_dmul>
 8003654:	4b87      	ldr	r3, [pc, #540]	; (8003874 <_dtoa_r+0x61c>)
 8003656:	2200      	movs	r2, #0
 8003658:	f7fc fda0 	bl	800019c <__adddf3>
 800365c:	e9cd 010a 	strd	r0, r1, [sp, #40]	; 0x28
 8003660:	9b0b      	ldr	r3, [sp, #44]	; 0x2c
 8003662:	f1a3 7550 	sub.w	r5, r3, #54525952	; 0x3400000
 8003666:	950b      	str	r5, [sp, #44]	; 0x2c
 8003668:	2e00      	cmp	r6, #0
 800366a:	d15c      	bne.n	8003726 <_dtoa_r+0x4ce>
 800366c:	e9dd 0102 	ldrd	r0, r1, [sp, #8]
 8003670:	2200      	movs	r2, #0
 8003672:	4b81      	ldr	r3, [pc, #516]	; (8003878 <_dtoa_r+0x620>)
 8003674:	f7fc fd90 	bl	8000198 <__aeabi_dsub>
 8003678:	9a0a      	ldr	r2, [sp, #40]	; 0x28
 800367a:	462b      	mov	r3, r5
 800367c:	e9cd 0102 	strd	r0, r1, [sp, #8]
 8003680:	f7fd f9ce 	bl	8000a20 <__aeabi_dcmpgt>
 8003684:	2800      	cmp	r0, #0
 8003686:	f040 82f7 	bne.w	8003c78 <_dtoa_r+0xa20>
 800368a:	e9dd 0102 	ldrd	r0, r1, [sp, #8]
 800368e:	9a0a      	ldr	r2, [sp, #40]	; 0x28
 8003690:	f105 4300 	add.w	r3, r5, #2147483648	; 0x80000000
 8003694:	f7fd f9a6 	bl	80009e4 <__aeabi_dcmplt>
 8003698:	2800      	cmp	r0, #0
 800369a:	f040 82eb 	bne.w	8003c74 <_dtoa_r+0xa1c>
 800369e:	e9dd 230e 	ldrd	r2, r3, [sp, #56]	; 0x38
 80036a2:	e9cd 2302 	strd	r2, r3, [sp, #8]
 80036a6:	9b13      	ldr	r3, [sp, #76]	; 0x4c
 80036a8:	2b00      	cmp	r3, #0
 80036aa:	f2c0 8150 	blt.w	800394e <_dtoa_r+0x6f6>
 80036ae:	f1bb 0f0e 	cmp.w	fp, #14
 80036b2:	f300 814c 	bgt.w	800394e <_dtoa_r+0x6f6>
 80036b6:	4b6b      	ldr	r3, [pc, #428]	; (8003864 <_dtoa_r+0x60c>)
 80036b8:	eb03 03cb 	add.w	r3, r3, fp, lsl #3
 80036bc:	e9d3 2300 	ldrd	r2, r3, [r3]
 80036c0:	e9cd 2304 	strd	r2, r3, [sp, #16]
 80036c4:	9b1f      	ldr	r3, [sp, #124]	; 0x7c
 80036c6:	2b00      	cmp	r3, #0
 80036c8:	f280 80da 	bge.w	8003880 <_dtoa_r+0x628>
 80036cc:	f1b9 0f00 	cmp.w	r9, #0
 80036d0:	f300 80d6 	bgt.w	8003880 <_dtoa_r+0x628>
 80036d4:	f040 82cd 	bne.w	8003c72 <_dtoa_r+0xa1a>
 80036d8:	e9dd 0104 	ldrd	r0, r1, [sp, #16]
 80036dc:	2200      	movs	r2, #0
 80036de:	4b66      	ldr	r3, [pc, #408]	; (8003878 <_dtoa_r+0x620>)
 80036e0:	f7fc ff0e 	bl	8000500 <__aeabi_dmul>
 80036e4:	e9dd 2302 	ldrd	r2, r3, [sp, #8]
 80036e8:	f7fd f990 	bl	8000a0c <__aeabi_dcmpge>
 80036ec:	464e      	mov	r6, r9
 80036ee:	464f      	mov	r7, r9
 80036f0:	2800      	cmp	r0, #0
 80036f2:	f040 82a4 	bne.w	8003c3e <_dtoa_r+0x9e6>
 80036f6:	9b06      	ldr	r3, [sp, #24]
 80036f8:	9a06      	ldr	r2, [sp, #24]
 80036fa:	1c5d      	adds	r5, r3, #1
 80036fc:	2331      	movs	r3, #49	; 0x31
 80036fe:	f10b 0b01 	add.w	fp, fp, #1
 8003702:	7013      	strb	r3, [r2, #0]
 8003704:	e29f      	b.n	8003c46 <_dtoa_r+0x9ee>
 8003706:	07f2      	lsls	r2, r6, #31
 8003708:	d505      	bpl.n	8003716 <_dtoa_r+0x4be>
 800370a:	e9d7 2300 	ldrd	r2, r3, [r7]
 800370e:	f7fc fef7 	bl	8000500 <__aeabi_dmul>
 8003712:	2301      	movs	r3, #1
 8003714:	3501      	adds	r5, #1
 8003716:	1076      	asrs	r6, r6, #1
 8003718:	3708      	adds	r7, #8
 800371a:	e76d      	b.n	80035f8 <_dtoa_r+0x3a0>
 800371c:	2502      	movs	r5, #2
 800371e:	e770      	b.n	8003602 <_dtoa_r+0x3aa>
 8003720:	465f      	mov	r7, fp
 8003722:	464e      	mov	r6, r9
 8003724:	e78f      	b.n	8003646 <_dtoa_r+0x3ee>
 8003726:	9a06      	ldr	r2, [sp, #24]
 8003728:	4b4e      	ldr	r3, [pc, #312]	; (8003864 <_dtoa_r+0x60c>)
 800372a:	4432      	add	r2, r6
 800372c:	9211      	str	r2, [sp, #68]	; 0x44
 800372e:	9a09      	ldr	r2, [sp, #36]	; 0x24
 8003730:	1e71      	subs	r1, r6, #1
 8003732:	2a00      	cmp	r2, #0
 8003734:	d048      	beq.n	80037c8 <_dtoa_r+0x570>
 8003736:	eb03 03c1 	add.w	r3, r3, r1, lsl #3
 800373a:	e9d3 2300 	ldrd	r2, r3, [r3]
 800373e:	2000      	movs	r0, #0
 8003740:	494e      	ldr	r1, [pc, #312]	; (800387c <_dtoa_r+0x624>)
 8003742:	f7fd f807 	bl	8000754 <__aeabi_ddiv>
 8003746:	e9dd 230a 	ldrd	r2, r3, [sp, #40]	; 0x28
 800374a:	f7fc fd25 	bl	8000198 <__aeabi_dsub>
 800374e:	e9cd 010a 	strd	r0, r1, [sp, #40]	; 0x28
 8003752:	9d06      	ldr	r5, [sp, #24]
 8003754:	e9dd 0102 	ldrd	r0, r1, [sp, #8]
 8003758:	f7fd f982 	bl	8000a60 <__aeabi_d2iz>
 800375c:	4606      	mov	r6, r0
 800375e:	f7fc fe69 	bl	8000434 <__aeabi_i2d>
 8003762:	4602      	mov	r2, r0
 8003764:	460b      	mov	r3, r1
 8003766:	e9dd 0102 	ldrd	r0, r1, [sp, #8]
 800376a:	f7fc fd15 	bl	8000198 <__aeabi_dsub>
 800376e:	e9dd 230a 	ldrd	r2, r3, [sp, #40]	; 0x28
 8003772:	3630      	adds	r6, #48	; 0x30
 8003774:	f805 6b01 	strb.w	r6, [r5], #1
 8003778:	e9cd 0102 	strd	r0, r1, [sp, #8]
 800377c:	f7fd f932 	bl	80009e4 <__aeabi_dcmplt>
 8003780:	2800      	cmp	r0, #0
 8003782:	d164      	bne.n	800384e <_dtoa_r+0x5f6>
 8003784:	e9dd 2302 	ldrd	r2, r3, [sp, #8]
 8003788:	2000      	movs	r0, #0
 800378a:	4938      	ldr	r1, [pc, #224]	; (800386c <_dtoa_r+0x614>)
 800378c:	f7fc fd04 	bl	8000198 <__aeabi_dsub>
 8003790:	e9dd 230a 	ldrd	r2, r3, [sp, #40]	; 0x28
 8003794:	f7fd f926 	bl	80009e4 <__aeabi_dcmplt>
 8003798:	2800      	cmp	r0, #0
 800379a:	f040 80b9 	bne.w	8003910 <_dtoa_r+0x6b8>
 800379e:	9b11      	ldr	r3, [sp, #68]	; 0x44
 80037a0:	429d      	cmp	r5, r3
 80037a2:	f43f af7c 	beq.w	800369e <_dtoa_r+0x446>
 80037a6:	e9dd 010a 	ldrd	r0, r1, [sp, #40]	; 0x28
 80037aa:	2200      	movs	r2, #0
 80037ac:	4b30      	ldr	r3, [pc, #192]	; (8003870 <_dtoa_r+0x618>)
 80037ae:	f7fc fea7 	bl	8000500 <__aeabi_dmul>
 80037b2:	2200      	movs	r2, #0
 80037b4:	e9cd 010a 	strd	r0, r1, [sp, #40]	; 0x28
 80037b8:	e9dd 0102 	ldrd	r0, r1, [sp, #8]
 80037bc:	4b2c      	ldr	r3, [pc, #176]	; (8003870 <_dtoa_r+0x618>)
 80037be:	f7fc fe9f 	bl	8000500 <__aeabi_dmul>
 80037c2:	e9cd 0102 	strd	r0, r1, [sp, #8]
 80037c6:	e7c5      	b.n	8003754 <_dtoa_r+0x4fc>
 80037c8:	eb03 01c1 	add.w	r1, r3, r1, lsl #3
 80037cc:	e9d1 0100 	ldrd	r0, r1, [r1]
 80037d0:	e9dd 230a 	ldrd	r2, r3, [sp, #40]	; 0x28
 80037d4:	f7fc fe94 	bl	8000500 <__aeabi_dmul>
 80037d8:	e9cd 010a 	strd	r0, r1, [sp, #40]	; 0x28
 80037dc:	9d06      	ldr	r5, [sp, #24]
 80037de:	e9dd 0102 	ldrd	r0, r1, [sp, #8]
 80037e2:	f7fd f93d 	bl	8000a60 <__aeabi_d2iz>
 80037e6:	4606      	mov	r6, r0
 80037e8:	f7fc fe24 	bl	8000434 <__aeabi_i2d>
 80037ec:	4602      	mov	r2, r0
 80037ee:	460b      	mov	r3, r1
 80037f0:	e9dd 0102 	ldrd	r0, r1, [sp, #8]
 80037f4:	f7fc fcd0 	bl	8000198 <__aeabi_dsub>
 80037f8:	3630      	adds	r6, #48	; 0x30
 80037fa:	9b11      	ldr	r3, [sp, #68]	; 0x44
 80037fc:	f805 6b01 	strb.w	r6, [r5], #1
 8003800:	42ab      	cmp	r3, r5
 8003802:	e9cd 0102 	strd	r0, r1, [sp, #8]
 8003806:	f04f 0200 	mov.w	r2, #0
 800380a:	d124      	bne.n	8003856 <_dtoa_r+0x5fe>
 800380c:	4b1b      	ldr	r3, [pc, #108]	; (800387c <_dtoa_r+0x624>)
 800380e:	e9dd 010a 	ldrd	r0, r1, [sp, #40]	; 0x28
 8003812:	f7fc fcc3 	bl	800019c <__adddf3>
 8003816:	4602      	mov	r2, r0
 8003818:	460b      	mov	r3, r1
 800381a:	e9dd 0102 	ldrd	r0, r1, [sp, #8]
 800381e:	f7fd f8ff 	bl	8000a20 <__aeabi_dcmpgt>
 8003822:	2800      	cmp	r0, #0
 8003824:	d174      	bne.n	8003910 <_dtoa_r+0x6b8>
 8003826:	e9dd 230a 	ldrd	r2, r3, [sp, #40]	; 0x28
 800382a:	2000      	movs	r0, #0
 800382c:	4913      	ldr	r1, [pc, #76]	; (800387c <_dtoa_r+0x624>)
 800382e:	f7fc fcb3 	bl	8000198 <__aeabi_dsub>
 8003832:	4602      	mov	r2, r0
 8003834:	460b      	mov	r3, r1
 8003836:	e9dd 0102 	ldrd	r0, r1, [sp, #8]
 800383a:	f7fd f8d3 	bl	80009e4 <__aeabi_dcmplt>
 800383e:	2800      	cmp	r0, #0
 8003840:	f43f af2d 	beq.w	800369e <_dtoa_r+0x446>
 8003844:	f815 3c01 	ldrb.w	r3, [r5, #-1]
 8003848:	1e6a      	subs	r2, r5, #1
 800384a:	2b30      	cmp	r3, #48	; 0x30
 800384c:	d001      	beq.n	8003852 <_dtoa_r+0x5fa>
 800384e:	46bb      	mov	fp, r7
 8003850:	e04d      	b.n	80038ee <_dtoa_r+0x696>
 8003852:	4615      	mov	r5, r2
 8003854:	e7f6      	b.n	8003844 <_dtoa_r+0x5ec>
 8003856:	4b06      	ldr	r3, [pc, #24]	; (8003870 <_dtoa_r+0x618>)
 8003858:	f7fc fe52 	bl	8000500 <__aeabi_dmul>
 800385c:	e9cd 0102 	strd	r0, r1, [sp, #8]
 8003860:	e7bd      	b.n	80037de <_dtoa_r+0x586>
 8003862:	bf00      	nop
 8003864:	08005538 	.word	0x08005538
 8003868:	08005510 	.word	0x08005510
 800386c:	3ff00000 	.word	0x3ff00000
 8003870:	40240000 	.word	0x40240000
 8003874:	401c0000 	.word	0x401c0000
 8003878:	40140000 	.word	0x40140000
 800387c:	3fe00000 	.word	0x3fe00000
 8003880:	9d06      	ldr	r5, [sp, #24]
 8003882:	e9dd 6702 	ldrd	r6, r7, [sp, #8]
 8003886:	e9dd 2304 	ldrd	r2, r3, [sp, #16]
 800388a:	4630      	mov	r0, r6
 800388c:	4639      	mov	r1, r7
 800388e:	f7fc ff61 	bl	8000754 <__aeabi_ddiv>
 8003892:	f7fd f8e5 	bl	8000a60 <__aeabi_d2iz>
 8003896:	4680      	mov	r8, r0
 8003898:	f7fc fdcc 	bl	8000434 <__aeabi_i2d>
 800389c:	e9dd 2304 	ldrd	r2, r3, [sp, #16]
 80038a0:	f7fc fe2e 	bl	8000500 <__aeabi_dmul>
 80038a4:	4602      	mov	r2, r0
 80038a6:	460b      	mov	r3, r1
 80038a8:	4630      	mov	r0, r6
 80038aa:	4639      	mov	r1, r7
 80038ac:	f7fc fc74 	bl	8000198 <__aeabi_dsub>
 80038b0:	f108 0630 	add.w	r6, r8, #48	; 0x30
 80038b4:	f805 6b01 	strb.w	r6, [r5], #1
 80038b8:	9e06      	ldr	r6, [sp, #24]
 80038ba:	4602      	mov	r2, r0
 80038bc:	1bae      	subs	r6, r5, r6
 80038be:	45b1      	cmp	r9, r6
 80038c0:	460b      	mov	r3, r1
 80038c2:	d137      	bne.n	8003934 <_dtoa_r+0x6dc>
 80038c4:	f7fc fc6a 	bl	800019c <__adddf3>
 80038c8:	4606      	mov	r6, r0
 80038ca:	460f      	mov	r7, r1
 80038cc:	4602      	mov	r2, r0
 80038ce:	460b      	mov	r3, r1
 80038d0:	e9dd 0104 	ldrd	r0, r1, [sp, #16]
 80038d4:	f7fd f886 	bl	80009e4 <__aeabi_dcmplt>
 80038d8:	b9c8      	cbnz	r0, 800390e <_dtoa_r+0x6b6>
 80038da:	e9dd 0104 	ldrd	r0, r1, [sp, #16]
 80038de:	4632      	mov	r2, r6
 80038e0:	463b      	mov	r3, r7
 80038e2:	f7fd f875 	bl	80009d0 <__aeabi_dcmpeq>
 80038e6:	b110      	cbz	r0, 80038ee <_dtoa_r+0x696>
 80038e8:	f018 0f01 	tst.w	r8, #1
 80038ec:	d10f      	bne.n	800390e <_dtoa_r+0x6b6>
 80038ee:	4651      	mov	r1, sl
 80038f0:	4620      	mov	r0, r4
 80038f2:	f000 fe13 	bl	800451c <_Bfree>
 80038f6:	2300      	movs	r3, #0
 80038f8:	9a20      	ldr	r2, [sp, #128]	; 0x80
 80038fa:	702b      	strb	r3, [r5, #0]
 80038fc:	f10b 0301 	add.w	r3, fp, #1
 8003900:	6013      	str	r3, [r2, #0]
 8003902:	9b22      	ldr	r3, [sp, #136]	; 0x88
 8003904:	2b00      	cmp	r3, #0
 8003906:	f43f acec 	beq.w	80032e2 <_dtoa_r+0x8a>
 800390a:	601d      	str	r5, [r3, #0]
 800390c:	e4e9      	b.n	80032e2 <_dtoa_r+0x8a>
 800390e:	465f      	mov	r7, fp
 8003910:	f815 2c01 	ldrb.w	r2, [r5, #-1]
 8003914:	1e6b      	subs	r3, r5, #1
 8003916:	2a39      	cmp	r2, #57	; 0x39
 8003918:	d106      	bne.n	8003928 <_dtoa_r+0x6d0>
 800391a:	9a06      	ldr	r2, [sp, #24]
 800391c:	429a      	cmp	r2, r3
 800391e:	d107      	bne.n	8003930 <_dtoa_r+0x6d8>
 8003920:	2330      	movs	r3, #48	; 0x30
 8003922:	7013      	strb	r3, [r2, #0]
 8003924:	4613      	mov	r3, r2
 8003926:	3701      	adds	r7, #1
 8003928:	781a      	ldrb	r2, [r3, #0]
 800392a:	3201      	adds	r2, #1
 800392c:	701a      	strb	r2, [r3, #0]
 800392e:	e78e      	b.n	800384e <_dtoa_r+0x5f6>
 8003930:	461d      	mov	r5, r3
 8003932:	e7ed      	b.n	8003910 <_dtoa_r+0x6b8>
 8003934:	2200      	movs	r2, #0
 8003936:	4bb5      	ldr	r3, [pc, #724]	; (8003c0c <_dtoa_r+0x9b4>)
 8003938:	f7fc fde2 	bl	8000500 <__aeabi_dmul>
 800393c:	2200      	movs	r2, #0
 800393e:	2300      	movs	r3, #0
 8003940:	4606      	mov	r6, r0
 8003942:	460f      	mov	r7, r1
 8003944:	f7fd f844 	bl	80009d0 <__aeabi_dcmpeq>
 8003948:	2800      	cmp	r0, #0
 800394a:	d09c      	beq.n	8003886 <_dtoa_r+0x62e>
 800394c:	e7cf      	b.n	80038ee <_dtoa_r+0x696>
 800394e:	9a09      	ldr	r2, [sp, #36]	; 0x24
 8003950:	2a00      	cmp	r2, #0
 8003952:	f000 8129 	beq.w	8003ba8 <_dtoa_r+0x950>
 8003956:	9a1e      	ldr	r2, [sp, #120]	; 0x78
 8003958:	2a01      	cmp	r2, #1
 800395a:	f300 810e 	bgt.w	8003b7a <_dtoa_r+0x922>
 800395e:	9a10      	ldr	r2, [sp, #64]	; 0x40
 8003960:	2a00      	cmp	r2, #0
 8003962:	f000 8106 	beq.w	8003b72 <_dtoa_r+0x91a>
 8003966:	f203 4333 	addw	r3, r3, #1075	; 0x433
 800396a:	4645      	mov	r5, r8
 800396c:	9e08      	ldr	r6, [sp, #32]
 800396e:	9a07      	ldr	r2, [sp, #28]
 8003970:	2101      	movs	r1, #1
 8003972:	441a      	add	r2, r3
 8003974:	4620      	mov	r0, r4
 8003976:	4498      	add	r8, r3
 8003978:	9207      	str	r2, [sp, #28]
 800397a:	f000 fe6f 	bl	800465c <__i2b>
 800397e:	4607      	mov	r7, r0
 8003980:	2d00      	cmp	r5, #0
 8003982:	dd0b      	ble.n	800399c <_dtoa_r+0x744>
 8003984:	9b07      	ldr	r3, [sp, #28]
 8003986:	2b00      	cmp	r3, #0
 8003988:	dd08      	ble.n	800399c <_dtoa_r+0x744>
 800398a:	42ab      	cmp	r3, r5
 800398c:	bfa8      	it	ge
 800398e:	462b      	movge	r3, r5
 8003990:	9a07      	ldr	r2, [sp, #28]
 8003992:	eba8 0803 	sub.w	r8, r8, r3
 8003996:	1aed      	subs	r5, r5, r3
 8003998:	1ad3      	subs	r3, r2, r3
 800399a:	9307      	str	r3, [sp, #28]
 800399c:	9b08      	ldr	r3, [sp, #32]
 800399e:	b1fb      	cbz	r3, 80039e0 <_dtoa_r+0x788>
 80039a0:	9b09      	ldr	r3, [sp, #36]	; 0x24
 80039a2:	2b00      	cmp	r3, #0
 80039a4:	f000 8104 	beq.w	8003bb0 <_dtoa_r+0x958>
 80039a8:	2e00      	cmp	r6, #0
 80039aa:	dd11      	ble.n	80039d0 <_dtoa_r+0x778>
 80039ac:	4639      	mov	r1, r7
 80039ae:	4632      	mov	r2, r6
 80039b0:	4620      	mov	r0, r4
 80039b2:	f000 fee9 	bl	8004788 <__pow5mult>
 80039b6:	4652      	mov	r2, sl
 80039b8:	4601      	mov	r1, r0
 80039ba:	4607      	mov	r7, r0
 80039bc:	4620      	mov	r0, r4
 80039be:	f000 fe56 	bl	800466e <__multiply>
 80039c2:	4651      	mov	r1, sl
 80039c4:	900a      	str	r0, [sp, #40]	; 0x28
 80039c6:	4620      	mov	r0, r4
 80039c8:	f000 fda8 	bl	800451c <_Bfree>
 80039cc:	9b0a      	ldr	r3, [sp, #40]	; 0x28
 80039ce:	469a      	mov	sl, r3
 80039d0:	9b08      	ldr	r3, [sp, #32]
 80039d2:	1b9a      	subs	r2, r3, r6
 80039d4:	d004      	beq.n	80039e0 <_dtoa_r+0x788>
 80039d6:	4651      	mov	r1, sl
 80039d8:	4620      	mov	r0, r4
 80039da:	f000 fed5 	bl	8004788 <__pow5mult>
 80039de:	4682      	mov	sl, r0
 80039e0:	2101      	movs	r1, #1
 80039e2:	4620      	mov	r0, r4
 80039e4:	f000 fe3a 	bl	800465c <__i2b>
 80039e8:	9b0c      	ldr	r3, [sp, #48]	; 0x30
 80039ea:	4606      	mov	r6, r0
 80039ec:	2b00      	cmp	r3, #0
 80039ee:	f340 80e1 	ble.w	8003bb4 <_dtoa_r+0x95c>
 80039f2:	461a      	mov	r2, r3
 80039f4:	4601      	mov	r1, r0
 80039f6:	4620      	mov	r0, r4
 80039f8:	f000 fec6 	bl	8004788 <__pow5mult>
 80039fc:	9b1e      	ldr	r3, [sp, #120]	; 0x78
 80039fe:	4606      	mov	r6, r0
 8003a00:	2b01      	cmp	r3, #1
 8003a02:	f340 80da 	ble.w	8003bba <_dtoa_r+0x962>
 8003a06:	2300      	movs	r3, #0
 8003a08:	9308      	str	r3, [sp, #32]
 8003a0a:	6933      	ldr	r3, [r6, #16]
 8003a0c:	eb06 0383 	add.w	r3, r6, r3, lsl #2
 8003a10:	6918      	ldr	r0, [r3, #16]
 8003a12:	f000 fdd5 	bl	80045c0 <__hi0bits>
 8003a16:	f1c0 0020 	rsb	r0, r0, #32
 8003a1a:	9b07      	ldr	r3, [sp, #28]
 8003a1c:	4418      	add	r0, r3
 8003a1e:	f010 001f 	ands.w	r0, r0, #31
 8003a22:	f000 80f0 	beq.w	8003c06 <_dtoa_r+0x9ae>
 8003a26:	f1c0 0320 	rsb	r3, r0, #32
 8003a2a:	2b04      	cmp	r3, #4
 8003a2c:	f340 80e2 	ble.w	8003bf4 <_dtoa_r+0x99c>
 8003a30:	9b07      	ldr	r3, [sp, #28]
 8003a32:	f1c0 001c 	rsb	r0, r0, #28
 8003a36:	4480      	add	r8, r0
 8003a38:	4405      	add	r5, r0
 8003a3a:	4403      	add	r3, r0
 8003a3c:	9307      	str	r3, [sp, #28]
 8003a3e:	f1b8 0f00 	cmp.w	r8, #0
 8003a42:	dd05      	ble.n	8003a50 <_dtoa_r+0x7f8>
 8003a44:	4651      	mov	r1, sl
 8003a46:	4642      	mov	r2, r8
 8003a48:	4620      	mov	r0, r4
 8003a4a:	f000 feeb 	bl	8004824 <__lshift>
 8003a4e:	4682      	mov	sl, r0
 8003a50:	9b07      	ldr	r3, [sp, #28]
 8003a52:	2b00      	cmp	r3, #0
 8003a54:	dd05      	ble.n	8003a62 <_dtoa_r+0x80a>
 8003a56:	4631      	mov	r1, r6
 8003a58:	461a      	mov	r2, r3
 8003a5a:	4620      	mov	r0, r4
 8003a5c:	f000 fee2 	bl	8004824 <__lshift>
 8003a60:	4606      	mov	r6, r0
 8003a62:	9b0d      	ldr	r3, [sp, #52]	; 0x34
 8003a64:	2b00      	cmp	r3, #0
 8003a66:	f000 80d3 	beq.w	8003c10 <_dtoa_r+0x9b8>
 8003a6a:	4631      	mov	r1, r6
 8003a6c:	4650      	mov	r0, sl
 8003a6e:	f000 ff2a 	bl	80048c6 <__mcmp>
 8003a72:	2800      	cmp	r0, #0
 8003a74:	f280 80cc 	bge.w	8003c10 <_dtoa_r+0x9b8>
 8003a78:	2300      	movs	r3, #0
 8003a7a:	4651      	mov	r1, sl
 8003a7c:	220a      	movs	r2, #10
 8003a7e:	4620      	mov	r0, r4
 8003a80:	f000 fd63 	bl	800454a <__multadd>
 8003a84:	9b09      	ldr	r3, [sp, #36]	; 0x24
 8003a86:	f10b 3bff 	add.w	fp, fp, #4294967295
 8003a8a:	4682      	mov	sl, r0
 8003a8c:	2b00      	cmp	r3, #0
 8003a8e:	f000 81a9 	beq.w	8003de4 <_dtoa_r+0xb8c>
 8003a92:	2300      	movs	r3, #0
 8003a94:	4639      	mov	r1, r7
 8003a96:	220a      	movs	r2, #10
 8003a98:	4620      	mov	r0, r4
 8003a9a:	f000 fd56 	bl	800454a <__multadd>
 8003a9e:	9b04      	ldr	r3, [sp, #16]
 8003aa0:	4607      	mov	r7, r0
 8003aa2:	2b00      	cmp	r3, #0
 8003aa4:	dc03      	bgt.n	8003aae <_dtoa_r+0x856>
 8003aa6:	9b1e      	ldr	r3, [sp, #120]	; 0x78
 8003aa8:	2b02      	cmp	r3, #2
 8003aaa:	f300 80b9 	bgt.w	8003c20 <_dtoa_r+0x9c8>
 8003aae:	2d00      	cmp	r5, #0
 8003ab0:	dd05      	ble.n	8003abe <_dtoa_r+0x866>
 8003ab2:	4639      	mov	r1, r7
 8003ab4:	462a      	mov	r2, r5
 8003ab6:	4620      	mov	r0, r4
 8003ab8:	f000 feb4 	bl	8004824 <__lshift>
 8003abc:	4607      	mov	r7, r0
 8003abe:	9b08      	ldr	r3, [sp, #32]
 8003ac0:	2b00      	cmp	r3, #0
 8003ac2:	f000 8110 	beq.w	8003ce6 <_dtoa_r+0xa8e>
 8003ac6:	6879      	ldr	r1, [r7, #4]
 8003ac8:	4620      	mov	r0, r4
 8003aca:	f000 fcf3 	bl	80044b4 <_Balloc>
 8003ace:	4605      	mov	r5, r0
 8003ad0:	693a      	ldr	r2, [r7, #16]
 8003ad2:	f107 010c 	add.w	r1, r7, #12
 8003ad6:	3202      	adds	r2, #2
 8003ad8:	0092      	lsls	r2, r2, #2
 8003ada:	300c      	adds	r0, #12
 8003adc:	f000 fcd2 	bl	8004484 <memcpy>
 8003ae0:	2201      	movs	r2, #1
 8003ae2:	4629      	mov	r1, r5
 8003ae4:	4620      	mov	r0, r4
 8003ae6:	f000 fe9d 	bl	8004824 <__lshift>
 8003aea:	9707      	str	r7, [sp, #28]
 8003aec:	4607      	mov	r7, r0
 8003aee:	9b02      	ldr	r3, [sp, #8]
 8003af0:	f8dd 8018 	ldr.w	r8, [sp, #24]
 8003af4:	f003 0301 	and.w	r3, r3, #1
 8003af8:	9308      	str	r3, [sp, #32]
 8003afa:	4631      	mov	r1, r6
 8003afc:	4650      	mov	r0, sl
 8003afe:	f7ff fb1f 	bl	8003140 <quorem>
 8003b02:	9907      	ldr	r1, [sp, #28]
 8003b04:	4605      	mov	r5, r0
 8003b06:	f100 0930 	add.w	r9, r0, #48	; 0x30
 8003b0a:	4650      	mov	r0, sl
 8003b0c:	f000 fedb 	bl	80048c6 <__mcmp>
 8003b10:	463a      	mov	r2, r7
 8003b12:	9002      	str	r0, [sp, #8]
 8003b14:	4631      	mov	r1, r6
 8003b16:	4620      	mov	r0, r4
 8003b18:	f000 feef 	bl	80048fa <__mdiff>
 8003b1c:	68c3      	ldr	r3, [r0, #12]
 8003b1e:	4602      	mov	r2, r0
 8003b20:	2b00      	cmp	r3, #0
 8003b22:	f040 80e2 	bne.w	8003cea <_dtoa_r+0xa92>
 8003b26:	4601      	mov	r1, r0
 8003b28:	9009      	str	r0, [sp, #36]	; 0x24
 8003b2a:	4650      	mov	r0, sl
 8003b2c:	f000 fecb 	bl	80048c6 <__mcmp>
 8003b30:	4603      	mov	r3, r0
 8003b32:	9a09      	ldr	r2, [sp, #36]	; 0x24
 8003b34:	4611      	mov	r1, r2
 8003b36:	4620      	mov	r0, r4
 8003b38:	9309      	str	r3, [sp, #36]	; 0x24
 8003b3a:	f000 fcef 	bl	800451c <_Bfree>
 8003b3e:	9b09      	ldr	r3, [sp, #36]	; 0x24
 8003b40:	2b00      	cmp	r3, #0
 8003b42:	f040 80d4 	bne.w	8003cee <_dtoa_r+0xa96>
 8003b46:	9a1e      	ldr	r2, [sp, #120]	; 0x78
 8003b48:	2a00      	cmp	r2, #0
 8003b4a:	f040 80d0 	bne.w	8003cee <_dtoa_r+0xa96>
 8003b4e:	9a08      	ldr	r2, [sp, #32]
 8003b50:	2a00      	cmp	r2, #0
 8003b52:	f040 80cc 	bne.w	8003cee <_dtoa_r+0xa96>
 8003b56:	f1b9 0f39 	cmp.w	r9, #57	; 0x39
 8003b5a:	f000 80e8 	beq.w	8003d2e <_dtoa_r+0xad6>
 8003b5e:	9b02      	ldr	r3, [sp, #8]
 8003b60:	2b00      	cmp	r3, #0
 8003b62:	dd01      	ble.n	8003b68 <_dtoa_r+0x910>
 8003b64:	f105 0931 	add.w	r9, r5, #49	; 0x31
 8003b68:	f108 0501 	add.w	r5, r8, #1
 8003b6c:	f888 9000 	strb.w	r9, [r8]
 8003b70:	e06b      	b.n	8003c4a <_dtoa_r+0x9f2>
 8003b72:	9b12      	ldr	r3, [sp, #72]	; 0x48
 8003b74:	f1c3 0336 	rsb	r3, r3, #54	; 0x36
 8003b78:	e6f7      	b.n	800396a <_dtoa_r+0x712>
 8003b7a:	9b08      	ldr	r3, [sp, #32]
 8003b7c:	f109 36ff 	add.w	r6, r9, #4294967295
 8003b80:	42b3      	cmp	r3, r6
 8003b82:	bfb7      	itett	lt
 8003b84:	9b08      	ldrlt	r3, [sp, #32]
 8003b86:	1b9e      	subge	r6, r3, r6
 8003b88:	1af2      	sublt	r2, r6, r3
 8003b8a:	9b0c      	ldrlt	r3, [sp, #48]	; 0x30
 8003b8c:	bfbf      	itttt	lt
 8003b8e:	9608      	strlt	r6, [sp, #32]
 8003b90:	189b      	addlt	r3, r3, r2
 8003b92:	930c      	strlt	r3, [sp, #48]	; 0x30
 8003b94:	2600      	movlt	r6, #0
 8003b96:	f1b9 0f00 	cmp.w	r9, #0
 8003b9a:	bfb9      	ittee	lt
 8003b9c:	eba8 0509 	sublt.w	r5, r8, r9
 8003ba0:	2300      	movlt	r3, #0
 8003ba2:	4645      	movge	r5, r8
 8003ba4:	464b      	movge	r3, r9
 8003ba6:	e6e2      	b.n	800396e <_dtoa_r+0x716>
 8003ba8:	9e08      	ldr	r6, [sp, #32]
 8003baa:	4645      	mov	r5, r8
 8003bac:	9f09      	ldr	r7, [sp, #36]	; 0x24
 8003bae:	e6e7      	b.n	8003980 <_dtoa_r+0x728>
 8003bb0:	9a08      	ldr	r2, [sp, #32]
 8003bb2:	e710      	b.n	80039d6 <_dtoa_r+0x77e>
 8003bb4:	9b1e      	ldr	r3, [sp, #120]	; 0x78
 8003bb6:	2b01      	cmp	r3, #1
 8003bb8:	dc18      	bgt.n	8003bec <_dtoa_r+0x994>
 8003bba:	9b02      	ldr	r3, [sp, #8]
 8003bbc:	b9b3      	cbnz	r3, 8003bec <_dtoa_r+0x994>
 8003bbe:	9b03      	ldr	r3, [sp, #12]
 8003bc0:	f3c3 0313 	ubfx	r3, r3, #0, #20
 8003bc4:	b9a3      	cbnz	r3, 8003bf0 <_dtoa_r+0x998>
 8003bc6:	9b03      	ldr	r3, [sp, #12]
 8003bc8:	f023 4300 	bic.w	r3, r3, #2147483648	; 0x80000000
 8003bcc:	0d1b      	lsrs	r3, r3, #20
 8003bce:	051b      	lsls	r3, r3, #20
 8003bd0:	b12b      	cbz	r3, 8003bde <_dtoa_r+0x986>
 8003bd2:	9b07      	ldr	r3, [sp, #28]
 8003bd4:	f108 0801 	add.w	r8, r8, #1
 8003bd8:	3301      	adds	r3, #1
 8003bda:	9307      	str	r3, [sp, #28]
 8003bdc:	2301      	movs	r3, #1
 8003bde:	9308      	str	r3, [sp, #32]
 8003be0:	9b0c      	ldr	r3, [sp, #48]	; 0x30
 8003be2:	2b00      	cmp	r3, #0
 8003be4:	f47f af11 	bne.w	8003a0a <_dtoa_r+0x7b2>
 8003be8:	2001      	movs	r0, #1
 8003bea:	e716      	b.n	8003a1a <_dtoa_r+0x7c2>
 8003bec:	2300      	movs	r3, #0
 8003bee:	e7f6      	b.n	8003bde <_dtoa_r+0x986>
 8003bf0:	9b02      	ldr	r3, [sp, #8]
 8003bf2:	e7f4      	b.n	8003bde <_dtoa_r+0x986>
 8003bf4:	f43f af23 	beq.w	8003a3e <_dtoa_r+0x7e6>
 8003bf8:	9a07      	ldr	r2, [sp, #28]
 8003bfa:	331c      	adds	r3, #28
 8003bfc:	441a      	add	r2, r3
 8003bfe:	4498      	add	r8, r3
 8003c00:	441d      	add	r5, r3
 8003c02:	4613      	mov	r3, r2
 8003c04:	e71a      	b.n	8003a3c <_dtoa_r+0x7e4>
 8003c06:	4603      	mov	r3, r0
 8003c08:	e7f6      	b.n	8003bf8 <_dtoa_r+0x9a0>
 8003c0a:	bf00      	nop
 8003c0c:	40240000 	.word	0x40240000
 8003c10:	f1b9 0f00 	cmp.w	r9, #0
 8003c14:	dc33      	bgt.n	8003c7e <_dtoa_r+0xa26>
 8003c16:	9b1e      	ldr	r3, [sp, #120]	; 0x78
 8003c18:	2b02      	cmp	r3, #2
 8003c1a:	dd30      	ble.n	8003c7e <_dtoa_r+0xa26>
 8003c1c:	f8cd 9010 	str.w	r9, [sp, #16]
 8003c20:	9b04      	ldr	r3, [sp, #16]
 8003c22:	b963      	cbnz	r3, 8003c3e <_dtoa_r+0x9e6>
 8003c24:	4631      	mov	r1, r6
 8003c26:	2205      	movs	r2, #5
 8003c28:	4620      	mov	r0, r4
 8003c2a:	f000 fc8e 	bl	800454a <__multadd>
 8003c2e:	4601      	mov	r1, r0
 8003c30:	4606      	mov	r6, r0
 8003c32:	4650      	mov	r0, sl
 8003c34:	f000 fe47 	bl	80048c6 <__mcmp>
 8003c38:	2800      	cmp	r0, #0
 8003c3a:	f73f ad5c 	bgt.w	80036f6 <_dtoa_r+0x49e>
 8003c3e:	9b1f      	ldr	r3, [sp, #124]	; 0x7c
 8003c40:	9d06      	ldr	r5, [sp, #24]
 8003c42:	ea6f 0b03 	mvn.w	fp, r3
 8003c46:	2300      	movs	r3, #0
 8003c48:	9307      	str	r3, [sp, #28]
 8003c4a:	4631      	mov	r1, r6
 8003c4c:	4620      	mov	r0, r4
 8003c4e:	f000 fc65 	bl	800451c <_Bfree>
 8003c52:	2f00      	cmp	r7, #0
 8003c54:	f43f ae4b 	beq.w	80038ee <_dtoa_r+0x696>
 8003c58:	9b07      	ldr	r3, [sp, #28]
 8003c5a:	b12b      	cbz	r3, 8003c68 <_dtoa_r+0xa10>
 8003c5c:	42bb      	cmp	r3, r7
 8003c5e:	d003      	beq.n	8003c68 <_dtoa_r+0xa10>
 8003c60:	4619      	mov	r1, r3
 8003c62:	4620      	mov	r0, r4
 8003c64:	f000 fc5a 	bl	800451c <_Bfree>
 8003c68:	4639      	mov	r1, r7
 8003c6a:	4620      	mov	r0, r4
 8003c6c:	f000 fc56 	bl	800451c <_Bfree>
 8003c70:	e63d      	b.n	80038ee <_dtoa_r+0x696>
 8003c72:	2600      	movs	r6, #0
 8003c74:	4637      	mov	r7, r6
 8003c76:	e7e2      	b.n	8003c3e <_dtoa_r+0x9e6>
 8003c78:	46bb      	mov	fp, r7
 8003c7a:	4637      	mov	r7, r6
 8003c7c:	e53b      	b.n	80036f6 <_dtoa_r+0x49e>
 8003c7e:	9b09      	ldr	r3, [sp, #36]	; 0x24
 8003c80:	f8cd 9010 	str.w	r9, [sp, #16]
 8003c84:	2b00      	cmp	r3, #0
 8003c86:	f47f af12 	bne.w	8003aae <_dtoa_r+0x856>
 8003c8a:	9d06      	ldr	r5, [sp, #24]
 8003c8c:	4631      	mov	r1, r6
 8003c8e:	4650      	mov	r0, sl
 8003c90:	f7ff fa56 	bl	8003140 <quorem>
 8003c94:	9b06      	ldr	r3, [sp, #24]
 8003c96:	f100 0930 	add.w	r9, r0, #48	; 0x30
 8003c9a:	f805 9b01 	strb.w	r9, [r5], #1
 8003c9e:	9a04      	ldr	r2, [sp, #16]
 8003ca0:	1aeb      	subs	r3, r5, r3
 8003ca2:	429a      	cmp	r2, r3
 8003ca4:	f300 8081 	bgt.w	8003daa <_dtoa_r+0xb52>
 8003ca8:	9b06      	ldr	r3, [sp, #24]
 8003caa:	2a01      	cmp	r2, #1
 8003cac:	bfac      	ite	ge
 8003cae:	189b      	addge	r3, r3, r2
 8003cb0:	3301      	addlt	r3, #1
 8003cb2:	4698      	mov	r8, r3
 8003cb4:	2300      	movs	r3, #0
 8003cb6:	9307      	str	r3, [sp, #28]
 8003cb8:	4651      	mov	r1, sl
 8003cba:	2201      	movs	r2, #1
 8003cbc:	4620      	mov	r0, r4
 8003cbe:	f000 fdb1 	bl	8004824 <__lshift>
 8003cc2:	4631      	mov	r1, r6
 8003cc4:	4682      	mov	sl, r0
 8003cc6:	f000 fdfe 	bl	80048c6 <__mcmp>
 8003cca:	2800      	cmp	r0, #0
 8003ccc:	dc34      	bgt.n	8003d38 <_dtoa_r+0xae0>
 8003cce:	d102      	bne.n	8003cd6 <_dtoa_r+0xa7e>
 8003cd0:	f019 0f01 	tst.w	r9, #1
 8003cd4:	d130      	bne.n	8003d38 <_dtoa_r+0xae0>
 8003cd6:	4645      	mov	r5, r8
 8003cd8:	f815 3c01 	ldrb.w	r3, [r5, #-1]
 8003cdc:	1e6a      	subs	r2, r5, #1
 8003cde:	2b30      	cmp	r3, #48	; 0x30
 8003ce0:	d1b3      	bne.n	8003c4a <_dtoa_r+0x9f2>
 8003ce2:	4615      	mov	r5, r2
 8003ce4:	e7f8      	b.n	8003cd8 <_dtoa_r+0xa80>
 8003ce6:	4638      	mov	r0, r7
 8003ce8:	e6ff      	b.n	8003aea <_dtoa_r+0x892>
 8003cea:	2301      	movs	r3, #1
 8003cec:	e722      	b.n	8003b34 <_dtoa_r+0x8dc>
 8003cee:	9a02      	ldr	r2, [sp, #8]
 8003cf0:	2a00      	cmp	r2, #0
 8003cf2:	db04      	blt.n	8003cfe <_dtoa_r+0xaa6>
 8003cf4:	d128      	bne.n	8003d48 <_dtoa_r+0xaf0>
 8003cf6:	9a1e      	ldr	r2, [sp, #120]	; 0x78
 8003cf8:	bb32      	cbnz	r2, 8003d48 <_dtoa_r+0xaf0>
 8003cfa:	9a08      	ldr	r2, [sp, #32]
 8003cfc:	bb22      	cbnz	r2, 8003d48 <_dtoa_r+0xaf0>
 8003cfe:	2b00      	cmp	r3, #0
 8003d00:	f77f af32 	ble.w	8003b68 <_dtoa_r+0x910>
 8003d04:	4651      	mov	r1, sl
 8003d06:	2201      	movs	r2, #1
 8003d08:	4620      	mov	r0, r4
 8003d0a:	f000 fd8b 	bl	8004824 <__lshift>
 8003d0e:	4631      	mov	r1, r6
 8003d10:	4682      	mov	sl, r0
 8003d12:	f000 fdd8 	bl	80048c6 <__mcmp>
 8003d16:	2800      	cmp	r0, #0
 8003d18:	dc05      	bgt.n	8003d26 <_dtoa_r+0xace>
 8003d1a:	f47f af25 	bne.w	8003b68 <_dtoa_r+0x910>
 8003d1e:	f019 0f01 	tst.w	r9, #1
 8003d22:	f43f af21 	beq.w	8003b68 <_dtoa_r+0x910>
 8003d26:	f1b9 0f39 	cmp.w	r9, #57	; 0x39
 8003d2a:	f47f af1b 	bne.w	8003b64 <_dtoa_r+0x90c>
 8003d2e:	2339      	movs	r3, #57	; 0x39
 8003d30:	f108 0801 	add.w	r8, r8, #1
 8003d34:	f808 3c01 	strb.w	r3, [r8, #-1]
 8003d38:	4645      	mov	r5, r8
 8003d3a:	f815 3c01 	ldrb.w	r3, [r5, #-1]
 8003d3e:	1e6a      	subs	r2, r5, #1
 8003d40:	2b39      	cmp	r3, #57	; 0x39
 8003d42:	d03a      	beq.n	8003dba <_dtoa_r+0xb62>
 8003d44:	3301      	adds	r3, #1
 8003d46:	e03f      	b.n	8003dc8 <_dtoa_r+0xb70>
 8003d48:	2b00      	cmp	r3, #0
 8003d4a:	f108 0501 	add.w	r5, r8, #1
 8003d4e:	dd05      	ble.n	8003d5c <_dtoa_r+0xb04>
 8003d50:	f1b9 0f39 	cmp.w	r9, #57	; 0x39
 8003d54:	d0eb      	beq.n	8003d2e <_dtoa_r+0xad6>
 8003d56:	f109 0901 	add.w	r9, r9, #1
 8003d5a:	e707      	b.n	8003b6c <_dtoa_r+0x914>
 8003d5c:	9b06      	ldr	r3, [sp, #24]
 8003d5e:	9a04      	ldr	r2, [sp, #16]
 8003d60:	1aeb      	subs	r3, r5, r3
 8003d62:	4293      	cmp	r3, r2
 8003d64:	46a8      	mov	r8, r5
 8003d66:	f805 9c01 	strb.w	r9, [r5, #-1]
 8003d6a:	d0a5      	beq.n	8003cb8 <_dtoa_r+0xa60>
 8003d6c:	4651      	mov	r1, sl
 8003d6e:	2300      	movs	r3, #0
 8003d70:	220a      	movs	r2, #10
 8003d72:	4620      	mov	r0, r4
 8003d74:	f000 fbe9 	bl	800454a <__multadd>
 8003d78:	9b07      	ldr	r3, [sp, #28]
 8003d7a:	4682      	mov	sl, r0
 8003d7c:	42bb      	cmp	r3, r7
 8003d7e:	f04f 020a 	mov.w	r2, #10
 8003d82:	f04f 0300 	mov.w	r3, #0
 8003d86:	9907      	ldr	r1, [sp, #28]
 8003d88:	4620      	mov	r0, r4
 8003d8a:	d104      	bne.n	8003d96 <_dtoa_r+0xb3e>
 8003d8c:	f000 fbdd 	bl	800454a <__multadd>
 8003d90:	9007      	str	r0, [sp, #28]
 8003d92:	4607      	mov	r7, r0
 8003d94:	e6b1      	b.n	8003afa <_dtoa_r+0x8a2>
 8003d96:	f000 fbd8 	bl	800454a <__multadd>
 8003d9a:	2300      	movs	r3, #0
 8003d9c:	9007      	str	r0, [sp, #28]
 8003d9e:	220a      	movs	r2, #10
 8003da0:	4639      	mov	r1, r7
 8003da2:	4620      	mov	r0, r4
 8003da4:	f000 fbd1 	bl	800454a <__multadd>
 8003da8:	e7f3      	b.n	8003d92 <_dtoa_r+0xb3a>
 8003daa:	4651      	mov	r1, sl
 8003dac:	2300      	movs	r3, #0
 8003dae:	220a      	movs	r2, #10
 8003db0:	4620      	mov	r0, r4
 8003db2:	f000 fbca 	bl	800454a <__multadd>
 8003db6:	4682      	mov	sl, r0
 8003db8:	e768      	b.n	8003c8c <_dtoa_r+0xa34>
 8003dba:	9b06      	ldr	r3, [sp, #24]
 8003dbc:	4293      	cmp	r3, r2
 8003dbe:	d105      	bne.n	8003dcc <_dtoa_r+0xb74>
 8003dc0:	2331      	movs	r3, #49	; 0x31
 8003dc2:	9a06      	ldr	r2, [sp, #24]
 8003dc4:	f10b 0b01 	add.w	fp, fp, #1
 8003dc8:	7013      	strb	r3, [r2, #0]
 8003dca:	e73e      	b.n	8003c4a <_dtoa_r+0x9f2>
 8003dcc:	4615      	mov	r5, r2
 8003dce:	e7b4      	b.n	8003d3a <_dtoa_r+0xae2>
 8003dd0:	4b09      	ldr	r3, [pc, #36]	; (8003df8 <_dtoa_r+0xba0>)
 8003dd2:	f7ff baa3 	b.w	800331c <_dtoa_r+0xc4>
 8003dd6:	9b22      	ldr	r3, [sp, #136]	; 0x88
 8003dd8:	2b00      	cmp	r3, #0
 8003dda:	f47f aa7d 	bne.w	80032d8 <_dtoa_r+0x80>
 8003dde:	4b07      	ldr	r3, [pc, #28]	; (8003dfc <_dtoa_r+0xba4>)
 8003de0:	f7ff ba9c 	b.w	800331c <_dtoa_r+0xc4>
 8003de4:	9b04      	ldr	r3, [sp, #16]
 8003de6:	2b00      	cmp	r3, #0
 8003de8:	f73f af4f 	bgt.w	8003c8a <_dtoa_r+0xa32>
 8003dec:	9b1e      	ldr	r3, [sp, #120]	; 0x78
 8003dee:	2b02      	cmp	r3, #2
 8003df0:	f77f af4b 	ble.w	8003c8a <_dtoa_r+0xa32>
 8003df4:	e714      	b.n	8003c20 <_dtoa_r+0x9c8>
 8003df6:	bf00      	nop
 8003df8:	080054da 	.word	0x080054da
 8003dfc:	080054fc 	.word	0x080054fc

08003e00 <_malloc_trim_r>:
 8003e00:	e92d 43f8 	stmdb	sp!, {r3, r4, r5, r6, r7, r8, r9, lr}
 8003e04:	4689      	mov	r9, r1
 8003e06:	4f25      	ldr	r7, [pc, #148]	; (8003e9c <_malloc_trim_r+0x9c>)
 8003e08:	4606      	mov	r6, r0
 8003e0a:	f000 fb47 	bl	800449c <__malloc_lock>
 8003e0e:	68bb      	ldr	r3, [r7, #8]
 8003e10:	f8df 8094 	ldr.w	r8, [pc, #148]	; 8003ea8 <_malloc_trim_r+0xa8>
 8003e14:	685d      	ldr	r5, [r3, #4]
 8003e16:	f1a8 0411 	sub.w	r4, r8, #17
 8003e1a:	f025 0503 	bic.w	r5, r5, #3
 8003e1e:	eba4 0409 	sub.w	r4, r4, r9
 8003e22:	442c      	add	r4, r5
 8003e24:	fbb4 f4f8 	udiv	r4, r4, r8
 8003e28:	3c01      	subs	r4, #1
 8003e2a:	fb08 f404 	mul.w	r4, r8, r4
 8003e2e:	4544      	cmp	r4, r8
 8003e30:	da05      	bge.n	8003e3e <_malloc_trim_r+0x3e>
 8003e32:	4630      	mov	r0, r6
 8003e34:	f000 fb38 	bl	80044a8 <__malloc_unlock>
 8003e38:	2000      	movs	r0, #0
 8003e3a:	e8bd 83f8 	ldmia.w	sp!, {r3, r4, r5, r6, r7, r8, r9, pc}
 8003e3e:	2100      	movs	r1, #0
 8003e40:	4630      	mov	r0, r6
 8003e42:	f000 fe09 	bl	8004a58 <_sbrk_r>
 8003e46:	68bb      	ldr	r3, [r7, #8]
 8003e48:	442b      	add	r3, r5
 8003e4a:	4298      	cmp	r0, r3
 8003e4c:	d1f1      	bne.n	8003e32 <_malloc_trim_r+0x32>
 8003e4e:	4261      	negs	r1, r4
 8003e50:	4630      	mov	r0, r6
 8003e52:	f000 fe01 	bl	8004a58 <_sbrk_r>
 8003e56:	3001      	adds	r0, #1
 8003e58:	d110      	bne.n	8003e7c <_malloc_trim_r+0x7c>
 8003e5a:	2100      	movs	r1, #0
 8003e5c:	4630      	mov	r0, r6
 8003e5e:	f000 fdfb 	bl	8004a58 <_sbrk_r>
 8003e62:	68ba      	ldr	r2, [r7, #8]
 8003e64:	1a83      	subs	r3, r0, r2
 8003e66:	2b0f      	cmp	r3, #15
 8003e68:	dde3      	ble.n	8003e32 <_malloc_trim_r+0x32>
 8003e6a:	490d      	ldr	r1, [pc, #52]	; (8003ea0 <_malloc_trim_r+0xa0>)
 8003e6c:	f043 0301 	orr.w	r3, r3, #1
 8003e70:	6809      	ldr	r1, [r1, #0]
 8003e72:	6053      	str	r3, [r2, #4]
 8003e74:	1a40      	subs	r0, r0, r1
 8003e76:	490b      	ldr	r1, [pc, #44]	; (8003ea4 <_malloc_trim_r+0xa4>)
 8003e78:	6008      	str	r0, [r1, #0]
 8003e7a:	e7da      	b.n	8003e32 <_malloc_trim_r+0x32>
 8003e7c:	68bb      	ldr	r3, [r7, #8]
 8003e7e:	4a09      	ldr	r2, [pc, #36]	; (8003ea4 <_malloc_trim_r+0xa4>)
 8003e80:	1b2d      	subs	r5, r5, r4
 8003e82:	f045 0501 	orr.w	r5, r5, #1
 8003e86:	605d      	str	r5, [r3, #4]
 8003e88:	6813      	ldr	r3, [r2, #0]
 8003e8a:	4630      	mov	r0, r6
 8003e8c:	1b1c      	subs	r4, r3, r4
 8003e8e:	6014      	str	r4, [r2, #0]
 8003e90:	f000 fb0a 	bl	80044a8 <__malloc_unlock>
 8003e94:	2001      	movs	r0, #1
 8003e96:	e8bd 83f8 	ldmia.w	sp!, {r3, r4, r5, r6, r7, r8, r9, pc}
 8003e9a:	bf00      	nop
 8003e9c:	200000f8 	.word	0x200000f8
 8003ea0:	20000500 	.word	0x20000500
 8003ea4:	200006c8 	.word	0x200006c8
 8003ea8:	00000080 	.word	0x00000080

08003eac <_free_r>:
 8003eac:	e92d 41f0 	stmdb	sp!, {r4, r5, r6, r7, r8, lr}
 8003eb0:	4604      	mov	r4, r0
 8003eb2:	4688      	mov	r8, r1
 8003eb4:	2900      	cmp	r1, #0
 8003eb6:	f000 80ab 	beq.w	8004010 <_free_r+0x164>
 8003eba:	f000 faef 	bl	800449c <__malloc_lock>
 8003ebe:	f858 2c04 	ldr.w	r2, [r8, #-4]
 8003ec2:	4d54      	ldr	r5, [pc, #336]	; (8004014 <_free_r+0x168>)
 8003ec4:	f022 0001 	bic.w	r0, r2, #1
 8003ec8:	f1a8 0308 	sub.w	r3, r8, #8
 8003ecc:	181f      	adds	r7, r3, r0
 8003ece:	68a9      	ldr	r1, [r5, #8]
 8003ed0:	687e      	ldr	r6, [r7, #4]
 8003ed2:	428f      	cmp	r7, r1
 8003ed4:	f026 0603 	bic.w	r6, r6, #3
 8003ed8:	f002 0201 	and.w	r2, r2, #1
 8003edc:	d11b      	bne.n	8003f16 <_free_r+0x6a>
 8003ede:	4430      	add	r0, r6
 8003ee0:	b93a      	cbnz	r2, 8003ef2 <_free_r+0x46>
 8003ee2:	f858 2c08 	ldr.w	r2, [r8, #-8]
 8003ee6:	1a9b      	subs	r3, r3, r2
 8003ee8:	6899      	ldr	r1, [r3, #8]
 8003eea:	4410      	add	r0, r2
 8003eec:	68da      	ldr	r2, [r3, #12]
 8003eee:	60ca      	str	r2, [r1, #12]
 8003ef0:	6091      	str	r1, [r2, #8]
 8003ef2:	f040 0201 	orr.w	r2, r0, #1
 8003ef6:	605a      	str	r2, [r3, #4]
 8003ef8:	60ab      	str	r3, [r5, #8]
 8003efa:	4b47      	ldr	r3, [pc, #284]	; (8004018 <_free_r+0x16c>)
 8003efc:	681b      	ldr	r3, [r3, #0]
 8003efe:	4298      	cmp	r0, r3
 8003f00:	d304      	bcc.n	8003f0c <_free_r+0x60>
 8003f02:	4b46      	ldr	r3, [pc, #280]	; (800401c <_free_r+0x170>)
 8003f04:	4620      	mov	r0, r4
 8003f06:	6819      	ldr	r1, [r3, #0]
 8003f08:	f7ff ff7a 	bl	8003e00 <_malloc_trim_r>
 8003f0c:	4620      	mov	r0, r4
 8003f0e:	e8bd 41f0 	ldmia.w	sp!, {r4, r5, r6, r7, r8, lr}
 8003f12:	f000 bac9 	b.w	80044a8 <__malloc_unlock>
 8003f16:	607e      	str	r6, [r7, #4]
 8003f18:	2a00      	cmp	r2, #0
 8003f1a:	d139      	bne.n	8003f90 <_free_r+0xe4>
 8003f1c:	f858 1c08 	ldr.w	r1, [r8, #-8]
 8003f20:	f105 0e08 	add.w	lr, r5, #8
 8003f24:	1a5b      	subs	r3, r3, r1
 8003f26:	4408      	add	r0, r1
 8003f28:	6899      	ldr	r1, [r3, #8]
 8003f2a:	4571      	cmp	r1, lr
 8003f2c:	d032      	beq.n	8003f94 <_free_r+0xe8>
 8003f2e:	f8d3 e00c 	ldr.w	lr, [r3, #12]
 8003f32:	f8c1 e00c 	str.w	lr, [r1, #12]
 8003f36:	f8ce 1008 	str.w	r1, [lr, #8]
 8003f3a:	19b9      	adds	r1, r7, r6
 8003f3c:	6849      	ldr	r1, [r1, #4]
 8003f3e:	07c9      	lsls	r1, r1, #31
 8003f40:	d40a      	bmi.n	8003f58 <_free_r+0xac>
 8003f42:	4430      	add	r0, r6
 8003f44:	68b9      	ldr	r1, [r7, #8]
 8003f46:	bb3a      	cbnz	r2, 8003f98 <_free_r+0xec>
 8003f48:	4e35      	ldr	r6, [pc, #212]	; (8004020 <_free_r+0x174>)
 8003f4a:	42b1      	cmp	r1, r6
 8003f4c:	d124      	bne.n	8003f98 <_free_r+0xec>
 8003f4e:	2201      	movs	r2, #1
 8003f50:	616b      	str	r3, [r5, #20]
 8003f52:	612b      	str	r3, [r5, #16]
 8003f54:	60d9      	str	r1, [r3, #12]
 8003f56:	6099      	str	r1, [r3, #8]
 8003f58:	f040 0101 	orr.w	r1, r0, #1
 8003f5c:	6059      	str	r1, [r3, #4]
 8003f5e:	5018      	str	r0, [r3, r0]
 8003f60:	2a00      	cmp	r2, #0
 8003f62:	d1d3      	bne.n	8003f0c <_free_r+0x60>
 8003f64:	f5b0 7f00 	cmp.w	r0, #512	; 0x200
 8003f68:	d21a      	bcs.n	8003fa0 <_free_r+0xf4>
 8003f6a:	2201      	movs	r2, #1
 8003f6c:	08c0      	lsrs	r0, r0, #3
 8003f6e:	1081      	asrs	r1, r0, #2
 8003f70:	408a      	lsls	r2, r1
 8003f72:	6869      	ldr	r1, [r5, #4]
 8003f74:	3001      	adds	r0, #1
 8003f76:	430a      	orrs	r2, r1
 8003f78:	606a      	str	r2, [r5, #4]
 8003f7a:	f855 1030 	ldr.w	r1, [r5, r0, lsl #3]
 8003f7e:	eb05 02c0 	add.w	r2, r5, r0, lsl #3
 8003f82:	3a08      	subs	r2, #8
 8003f84:	60da      	str	r2, [r3, #12]
 8003f86:	6099      	str	r1, [r3, #8]
 8003f88:	f845 3030 	str.w	r3, [r5, r0, lsl #3]
 8003f8c:	60cb      	str	r3, [r1, #12]
 8003f8e:	e7bd      	b.n	8003f0c <_free_r+0x60>
 8003f90:	2200      	movs	r2, #0
 8003f92:	e7d2      	b.n	8003f3a <_free_r+0x8e>
 8003f94:	2201      	movs	r2, #1
 8003f96:	e7d0      	b.n	8003f3a <_free_r+0x8e>
 8003f98:	68fe      	ldr	r6, [r7, #12]
 8003f9a:	60ce      	str	r6, [r1, #12]
 8003f9c:	60b1      	str	r1, [r6, #8]
 8003f9e:	e7db      	b.n	8003f58 <_free_r+0xac>
 8003fa0:	0a42      	lsrs	r2, r0, #9
 8003fa2:	2a04      	cmp	r2, #4
 8003fa4:	d813      	bhi.n	8003fce <_free_r+0x122>
 8003fa6:	0982      	lsrs	r2, r0, #6
 8003fa8:	3238      	adds	r2, #56	; 0x38
 8003faa:	1c51      	adds	r1, r2, #1
 8003fac:	f855 1031 	ldr.w	r1, [r5, r1, lsl #3]
 8003fb0:	eb05 06c2 	add.w	r6, r5, r2, lsl #3
 8003fb4:	428e      	cmp	r6, r1
 8003fb6:	d124      	bne.n	8004002 <_free_r+0x156>
 8003fb8:	2001      	movs	r0, #1
 8003fba:	1092      	asrs	r2, r2, #2
 8003fbc:	fa00 f202 	lsl.w	r2, r0, r2
 8003fc0:	6868      	ldr	r0, [r5, #4]
 8003fc2:	4302      	orrs	r2, r0
 8003fc4:	606a      	str	r2, [r5, #4]
 8003fc6:	60de      	str	r6, [r3, #12]
 8003fc8:	6099      	str	r1, [r3, #8]
 8003fca:	60b3      	str	r3, [r6, #8]
 8003fcc:	e7de      	b.n	8003f8c <_free_r+0xe0>
 8003fce:	2a14      	cmp	r2, #20
 8003fd0:	d801      	bhi.n	8003fd6 <_free_r+0x12a>
 8003fd2:	325b      	adds	r2, #91	; 0x5b
 8003fd4:	e7e9      	b.n	8003faa <_free_r+0xfe>
 8003fd6:	2a54      	cmp	r2, #84	; 0x54
 8003fd8:	d802      	bhi.n	8003fe0 <_free_r+0x134>
 8003fda:	0b02      	lsrs	r2, r0, #12
 8003fdc:	326e      	adds	r2, #110	; 0x6e
 8003fde:	e7e4      	b.n	8003faa <_free_r+0xfe>
 8003fe0:	f5b2 7faa 	cmp.w	r2, #340	; 0x154
 8003fe4:	d802      	bhi.n	8003fec <_free_r+0x140>
 8003fe6:	0bc2      	lsrs	r2, r0, #15
 8003fe8:	3277      	adds	r2, #119	; 0x77
 8003fea:	e7de      	b.n	8003faa <_free_r+0xfe>
 8003fec:	f240 5154 	movw	r1, #1364	; 0x554
 8003ff0:	428a      	cmp	r2, r1
 8003ff2:	bf9a      	itte	ls
 8003ff4:	0c82      	lsrls	r2, r0, #18
 8003ff6:	327c      	addls	r2, #124	; 0x7c
 8003ff8:	227e      	movhi	r2, #126	; 0x7e
 8003ffa:	e7d6      	b.n	8003faa <_free_r+0xfe>
 8003ffc:	6889      	ldr	r1, [r1, #8]
 8003ffe:	428e      	cmp	r6, r1
 8004000:	d004      	beq.n	800400c <_free_r+0x160>
 8004002:	684a      	ldr	r2, [r1, #4]
 8004004:	f022 0203 	bic.w	r2, r2, #3
 8004008:	4290      	cmp	r0, r2
 800400a:	d3f7      	bcc.n	8003ffc <_free_r+0x150>
 800400c:	68ce      	ldr	r6, [r1, #12]
 800400e:	e7da      	b.n	8003fc6 <_free_r+0x11a>
 8004010:	e8bd 81f0 	ldmia.w	sp!, {r4, r5, r6, r7, r8, pc}
 8004014:	200000f8 	.word	0x200000f8
 8004018:	20000504 	.word	0x20000504
 800401c:	200006f8 	.word	0x200006f8
 8004020:	20000100 	.word	0x20000100

08004024 <_localeconv_r>:
 8004024:	4b04      	ldr	r3, [pc, #16]	; (8004038 <_localeconv_r+0x14>)
 8004026:	681b      	ldr	r3, [r3, #0]
 8004028:	6a18      	ldr	r0, [r3, #32]
 800402a:	4b04      	ldr	r3, [pc, #16]	; (800403c <_localeconv_r+0x18>)
 800402c:	2800      	cmp	r0, #0
 800402e:	bf08      	it	eq
 8004030:	4618      	moveq	r0, r3
 8004032:	30f0      	adds	r0, #240	; 0xf0
 8004034:	4770      	bx	lr
 8004036:	bf00      	nop
 8004038:	20000004 	.word	0x20000004
 800403c:	20000508 	.word	0x20000508

08004040 <malloc>:
 8004040:	4b02      	ldr	r3, [pc, #8]	; (800404c <malloc+0xc>)
 8004042:	4601      	mov	r1, r0
 8004044:	6818      	ldr	r0, [r3, #0]
 8004046:	f000 b803 	b.w	8004050 <_malloc_r>
 800404a:	bf00      	nop
 800404c:	20000004 	.word	0x20000004

08004050 <_malloc_r>:
 8004050:	e92d 4ff7 	stmdb	sp!, {r0, r1, r2, r4, r5, r6, r7, r8, r9, sl, fp, lr}
 8004054:	f101 040b 	add.w	r4, r1, #11
 8004058:	2c16      	cmp	r4, #22
 800405a:	4681      	mov	r9, r0
 800405c:	d907      	bls.n	800406e <_malloc_r+0x1e>
 800405e:	f034 0407 	bics.w	r4, r4, #7
 8004062:	d505      	bpl.n	8004070 <_malloc_r+0x20>
 8004064:	230c      	movs	r3, #12
 8004066:	f8c9 3000 	str.w	r3, [r9]
 800406a:	2600      	movs	r6, #0
 800406c:	e131      	b.n	80042d2 <_malloc_r+0x282>
 800406e:	2410      	movs	r4, #16
 8004070:	428c      	cmp	r4, r1
 8004072:	d3f7      	bcc.n	8004064 <_malloc_r+0x14>
 8004074:	4648      	mov	r0, r9
 8004076:	f000 fa11 	bl	800449c <__malloc_lock>
 800407a:	f5b4 7ffc 	cmp.w	r4, #504	; 0x1f8
 800407e:	4d9b      	ldr	r5, [pc, #620]	; (80042ec <_malloc_r+0x29c>)
 8004080:	d236      	bcs.n	80040f0 <_malloc_r+0xa0>
 8004082:	f104 0208 	add.w	r2, r4, #8
 8004086:	442a      	add	r2, r5
 8004088:	6856      	ldr	r6, [r2, #4]
 800408a:	f1a2 0108 	sub.w	r1, r2, #8
 800408e:	428e      	cmp	r6, r1
 8004090:	ea4f 03d4 	mov.w	r3, r4, lsr #3
 8004094:	d102      	bne.n	800409c <_malloc_r+0x4c>
 8004096:	68d6      	ldr	r6, [r2, #12]
 8004098:	42b2      	cmp	r2, r6
 800409a:	d010      	beq.n	80040be <_malloc_r+0x6e>
 800409c:	6873      	ldr	r3, [r6, #4]
 800409e:	68f2      	ldr	r2, [r6, #12]
 80040a0:	68b1      	ldr	r1, [r6, #8]
 80040a2:	f023 0303 	bic.w	r3, r3, #3
 80040a6:	60ca      	str	r2, [r1, #12]
 80040a8:	4433      	add	r3, r6
 80040aa:	6091      	str	r1, [r2, #8]
 80040ac:	685a      	ldr	r2, [r3, #4]
 80040ae:	f042 0201 	orr.w	r2, r2, #1
 80040b2:	605a      	str	r2, [r3, #4]
 80040b4:	4648      	mov	r0, r9
 80040b6:	f000 f9f7 	bl	80044a8 <__malloc_unlock>
 80040ba:	3608      	adds	r6, #8
 80040bc:	e109      	b.n	80042d2 <_malloc_r+0x282>
 80040be:	3302      	adds	r3, #2
 80040c0:	4a8b      	ldr	r2, [pc, #556]	; (80042f0 <_malloc_r+0x2a0>)
 80040c2:	692e      	ldr	r6, [r5, #16]
 80040c4:	4611      	mov	r1, r2
 80040c6:	4296      	cmp	r6, r2
 80040c8:	d06d      	beq.n	80041a6 <_malloc_r+0x156>
 80040ca:	6870      	ldr	r0, [r6, #4]
 80040cc:	f020 0003 	bic.w	r0, r0, #3
 80040d0:	1b07      	subs	r7, r0, r4
 80040d2:	2f0f      	cmp	r7, #15
 80040d4:	dd47      	ble.n	8004166 <_malloc_r+0x116>
 80040d6:	1933      	adds	r3, r6, r4
 80040d8:	f044 0401 	orr.w	r4, r4, #1
 80040dc:	6074      	str	r4, [r6, #4]
 80040de:	616b      	str	r3, [r5, #20]
 80040e0:	612b      	str	r3, [r5, #16]
 80040e2:	60da      	str	r2, [r3, #12]
 80040e4:	609a      	str	r2, [r3, #8]
 80040e6:	f047 0201 	orr.w	r2, r7, #1
 80040ea:	605a      	str	r2, [r3, #4]
 80040ec:	5037      	str	r7, [r6, r0]
 80040ee:	e7e1      	b.n	80040b4 <_malloc_r+0x64>
 80040f0:	0a63      	lsrs	r3, r4, #9
 80040f2:	d02a      	beq.n	800414a <_malloc_r+0xfa>
 80040f4:	2b04      	cmp	r3, #4
 80040f6:	d812      	bhi.n	800411e <_malloc_r+0xce>
 80040f8:	09a3      	lsrs	r3, r4, #6
 80040fa:	3338      	adds	r3, #56	; 0x38
 80040fc:	1c5a      	adds	r2, r3, #1
 80040fe:	eb05 02c2 	add.w	r2, r5, r2, lsl #3
 8004102:	6856      	ldr	r6, [r2, #4]
 8004104:	f1a2 0008 	sub.w	r0, r2, #8
 8004108:	4286      	cmp	r6, r0
 800410a:	d006      	beq.n	800411a <_malloc_r+0xca>
 800410c:	6872      	ldr	r2, [r6, #4]
 800410e:	f022 0203 	bic.w	r2, r2, #3
 8004112:	1b11      	subs	r1, r2, r4
 8004114:	290f      	cmp	r1, #15
 8004116:	dd1c      	ble.n	8004152 <_malloc_r+0x102>
 8004118:	3b01      	subs	r3, #1
 800411a:	3301      	adds	r3, #1
 800411c:	e7d0      	b.n	80040c0 <_malloc_r+0x70>
 800411e:	2b14      	cmp	r3, #20
 8004120:	d801      	bhi.n	8004126 <_malloc_r+0xd6>
 8004122:	335b      	adds	r3, #91	; 0x5b
 8004124:	e7ea      	b.n	80040fc <_malloc_r+0xac>
 8004126:	2b54      	cmp	r3, #84	; 0x54
 8004128:	d802      	bhi.n	8004130 <_malloc_r+0xe0>
 800412a:	0b23      	lsrs	r3, r4, #12
 800412c:	336e      	adds	r3, #110	; 0x6e
 800412e:	e7e5      	b.n	80040fc <_malloc_r+0xac>
 8004130:	f5b3 7faa 	cmp.w	r3, #340	; 0x154
 8004134:	d802      	bhi.n	800413c <_malloc_r+0xec>
 8004136:	0be3      	lsrs	r3, r4, #15
 8004138:	3377      	adds	r3, #119	; 0x77
 800413a:	e7df      	b.n	80040fc <_malloc_r+0xac>
 800413c:	f240 5254 	movw	r2, #1364	; 0x554
 8004140:	4293      	cmp	r3, r2
 8004142:	d804      	bhi.n	800414e <_malloc_r+0xfe>
 8004144:	0ca3      	lsrs	r3, r4, #18
 8004146:	337c      	adds	r3, #124	; 0x7c
 8004148:	e7d8      	b.n	80040fc <_malloc_r+0xac>
 800414a:	233f      	movs	r3, #63	; 0x3f
 800414c:	e7d6      	b.n	80040fc <_malloc_r+0xac>
 800414e:	237e      	movs	r3, #126	; 0x7e
 8004150:	e7d4      	b.n	80040fc <_malloc_r+0xac>
 8004152:	2900      	cmp	r1, #0
 8004154:	68f1      	ldr	r1, [r6, #12]
 8004156:	db04      	blt.n	8004162 <_malloc_r+0x112>
 8004158:	68b3      	ldr	r3, [r6, #8]
 800415a:	60d9      	str	r1, [r3, #12]
 800415c:	608b      	str	r3, [r1, #8]
 800415e:	18b3      	adds	r3, r6, r2
 8004160:	e7a4      	b.n	80040ac <_malloc_r+0x5c>
 8004162:	460e      	mov	r6, r1
 8004164:	e7d0      	b.n	8004108 <_malloc_r+0xb8>
 8004166:	2f00      	cmp	r7, #0
 8004168:	616a      	str	r2, [r5, #20]
 800416a:	612a      	str	r2, [r5, #16]
 800416c:	db05      	blt.n	800417a <_malloc_r+0x12a>
 800416e:	4430      	add	r0, r6
 8004170:	6843      	ldr	r3, [r0, #4]
 8004172:	f043 0301 	orr.w	r3, r3, #1
 8004176:	6043      	str	r3, [r0, #4]
 8004178:	e79c      	b.n	80040b4 <_malloc_r+0x64>
 800417a:	f5b0 7f00 	cmp.w	r0, #512	; 0x200
 800417e:	d244      	bcs.n	800420a <_malloc_r+0x1ba>
 8004180:	2201      	movs	r2, #1
 8004182:	08c0      	lsrs	r0, r0, #3
 8004184:	1087      	asrs	r7, r0, #2
 8004186:	fa02 f707 	lsl.w	r7, r2, r7
 800418a:	686a      	ldr	r2, [r5, #4]
 800418c:	3001      	adds	r0, #1
 800418e:	433a      	orrs	r2, r7
 8004190:	606a      	str	r2, [r5, #4]
 8004192:	f855 7030 	ldr.w	r7, [r5, r0, lsl #3]
 8004196:	eb05 02c0 	add.w	r2, r5, r0, lsl #3
 800419a:	3a08      	subs	r2, #8
 800419c:	60f2      	str	r2, [r6, #12]
 800419e:	60b7      	str	r7, [r6, #8]
 80041a0:	f845 6030 	str.w	r6, [r5, r0, lsl #3]
 80041a4:	60fe      	str	r6, [r7, #12]
 80041a6:	2001      	movs	r0, #1
 80041a8:	109a      	asrs	r2, r3, #2
 80041aa:	fa00 f202 	lsl.w	r2, r0, r2
 80041ae:	6868      	ldr	r0, [r5, #4]
 80041b0:	4282      	cmp	r2, r0
 80041b2:	f200 809f 	bhi.w	80042f4 <_malloc_r+0x2a4>
 80041b6:	4202      	tst	r2, r0
 80041b8:	d106      	bne.n	80041c8 <_malloc_r+0x178>
 80041ba:	f023 0303 	bic.w	r3, r3, #3
 80041be:	0052      	lsls	r2, r2, #1
 80041c0:	4202      	tst	r2, r0
 80041c2:	f103 0304 	add.w	r3, r3, #4
 80041c6:	d0fa      	beq.n	80041be <_malloc_r+0x16e>
 80041c8:	eb05 0cc3 	add.w	ip, r5, r3, lsl #3
 80041cc:	46e0      	mov	r8, ip
 80041ce:	469e      	mov	lr, r3
 80041d0:	f8d8 600c 	ldr.w	r6, [r8, #12]
 80041d4:	4546      	cmp	r6, r8
 80041d6:	d153      	bne.n	8004280 <_malloc_r+0x230>
 80041d8:	f10e 0e01 	add.w	lr, lr, #1
 80041dc:	f01e 0f03 	tst.w	lr, #3
 80041e0:	f108 0808 	add.w	r8, r8, #8
 80041e4:	d1f4      	bne.n	80041d0 <_malloc_r+0x180>
 80041e6:	0798      	lsls	r0, r3, #30
 80041e8:	d179      	bne.n	80042de <_malloc_r+0x28e>
 80041ea:	686b      	ldr	r3, [r5, #4]
 80041ec:	ea23 0302 	bic.w	r3, r3, r2
 80041f0:	606b      	str	r3, [r5, #4]
 80041f2:	6868      	ldr	r0, [r5, #4]
 80041f4:	0052      	lsls	r2, r2, #1
 80041f6:	4282      	cmp	r2, r0
 80041f8:	d87c      	bhi.n	80042f4 <_malloc_r+0x2a4>
 80041fa:	2a00      	cmp	r2, #0
 80041fc:	d07a      	beq.n	80042f4 <_malloc_r+0x2a4>
 80041fe:	4673      	mov	r3, lr
 8004200:	4202      	tst	r2, r0
 8004202:	d1e1      	bne.n	80041c8 <_malloc_r+0x178>
 8004204:	3304      	adds	r3, #4
 8004206:	0052      	lsls	r2, r2, #1
 8004208:	e7fa      	b.n	8004200 <_malloc_r+0x1b0>
 800420a:	0a42      	lsrs	r2, r0, #9
 800420c:	2a04      	cmp	r2, #4
 800420e:	d815      	bhi.n	800423c <_malloc_r+0x1ec>
 8004210:	0982      	lsrs	r2, r0, #6
 8004212:	3238      	adds	r2, #56	; 0x38
 8004214:	1c57      	adds	r7, r2, #1
 8004216:	f855 7037 	ldr.w	r7, [r5, r7, lsl #3]
 800421a:	eb05 0ec2 	add.w	lr, r5, r2, lsl #3
 800421e:	45be      	cmp	lr, r7
 8004220:	d126      	bne.n	8004270 <_malloc_r+0x220>
 8004222:	2001      	movs	r0, #1
 8004224:	1092      	asrs	r2, r2, #2
 8004226:	fa00 f202 	lsl.w	r2, r0, r2
 800422a:	6868      	ldr	r0, [r5, #4]
 800422c:	4310      	orrs	r0, r2
 800422e:	6068      	str	r0, [r5, #4]
 8004230:	f8c6 e00c 	str.w	lr, [r6, #12]
 8004234:	60b7      	str	r7, [r6, #8]
 8004236:	f8ce 6008 	str.w	r6, [lr, #8]
 800423a:	e7b3      	b.n	80041a4 <_malloc_r+0x154>
 800423c:	2a14      	cmp	r2, #20
 800423e:	d801      	bhi.n	8004244 <_malloc_r+0x1f4>
 8004240:	325b      	adds	r2, #91	; 0x5b
 8004242:	e7e7      	b.n	8004214 <_malloc_r+0x1c4>
 8004244:	2a54      	cmp	r2, #84	; 0x54
 8004246:	d802      	bhi.n	800424e <_malloc_r+0x1fe>
 8004248:	0b02      	lsrs	r2, r0, #12
 800424a:	326e      	adds	r2, #110	; 0x6e
 800424c:	e7e2      	b.n	8004214 <_malloc_r+0x1c4>
 800424e:	f5b2 7faa 	cmp.w	r2, #340	; 0x154
 8004252:	d802      	bhi.n	800425a <_malloc_r+0x20a>
 8004254:	0bc2      	lsrs	r2, r0, #15
 8004256:	3277      	adds	r2, #119	; 0x77
 8004258:	e7dc      	b.n	8004214 <_malloc_r+0x1c4>
 800425a:	f240 5754 	movw	r7, #1364	; 0x554
 800425e:	42ba      	cmp	r2, r7
 8004260:	bf9a      	itte	ls
 8004262:	0c82      	lsrls	r2, r0, #18
 8004264:	327c      	addls	r2, #124	; 0x7c
 8004266:	227e      	movhi	r2, #126	; 0x7e
 8004268:	e7d4      	b.n	8004214 <_malloc_r+0x1c4>
 800426a:	68bf      	ldr	r7, [r7, #8]
 800426c:	45be      	cmp	lr, r7
 800426e:	d004      	beq.n	800427a <_malloc_r+0x22a>
 8004270:	687a      	ldr	r2, [r7, #4]
 8004272:	f022 0203 	bic.w	r2, r2, #3
 8004276:	4290      	cmp	r0, r2
 8004278:	d3f7      	bcc.n	800426a <_malloc_r+0x21a>
 800427a:	f8d7 e00c 	ldr.w	lr, [r7, #12]
 800427e:	e7d7      	b.n	8004230 <_malloc_r+0x1e0>
 8004280:	6870      	ldr	r0, [r6, #4]
 8004282:	68f7      	ldr	r7, [r6, #12]
 8004284:	f020 0003 	bic.w	r0, r0, #3
 8004288:	eba0 0a04 	sub.w	sl, r0, r4
 800428c:	f1ba 0f0f 	cmp.w	sl, #15
 8004290:	dd10      	ble.n	80042b4 <_malloc_r+0x264>
 8004292:	68b2      	ldr	r2, [r6, #8]
 8004294:	1933      	adds	r3, r6, r4
 8004296:	f044 0401 	orr.w	r4, r4, #1
 800429a:	6074      	str	r4, [r6, #4]
 800429c:	60d7      	str	r7, [r2, #12]
 800429e:	60ba      	str	r2, [r7, #8]
 80042a0:	f04a 0201 	orr.w	r2, sl, #1
 80042a4:	616b      	str	r3, [r5, #20]
 80042a6:	612b      	str	r3, [r5, #16]
 80042a8:	60d9      	str	r1, [r3, #12]
 80042aa:	6099      	str	r1, [r3, #8]
 80042ac:	605a      	str	r2, [r3, #4]
 80042ae:	f846 a000 	str.w	sl, [r6, r0]
 80042b2:	e6ff      	b.n	80040b4 <_malloc_r+0x64>
 80042b4:	f1ba 0f00 	cmp.w	sl, #0
 80042b8:	db0f      	blt.n	80042da <_malloc_r+0x28a>
 80042ba:	4430      	add	r0, r6
 80042bc:	6843      	ldr	r3, [r0, #4]
 80042be:	f043 0301 	orr.w	r3, r3, #1
 80042c2:	6043      	str	r3, [r0, #4]
 80042c4:	f856 3f08 	ldr.w	r3, [r6, #8]!
 80042c8:	4648      	mov	r0, r9
 80042ca:	60df      	str	r7, [r3, #12]
 80042cc:	60bb      	str	r3, [r7, #8]
 80042ce:	f000 f8eb 	bl	80044a8 <__malloc_unlock>
 80042d2:	4630      	mov	r0, r6
 80042d4:	b003      	add	sp, #12
 80042d6:	e8bd 8ff0 	ldmia.w	sp!, {r4, r5, r6, r7, r8, r9, sl, fp, pc}
 80042da:	463e      	mov	r6, r7
 80042dc:	e77a      	b.n	80041d4 <_malloc_r+0x184>
 80042de:	f85c 0908 	ldr.w	r0, [ip], #-8
 80042e2:	3b01      	subs	r3, #1
 80042e4:	4584      	cmp	ip, r0
 80042e6:	f43f af7e 	beq.w	80041e6 <_malloc_r+0x196>
 80042ea:	e782      	b.n	80041f2 <_malloc_r+0x1a2>
 80042ec:	200000f8 	.word	0x200000f8
 80042f0:	20000100 	.word	0x20000100
 80042f4:	f8d5 b008 	ldr.w	fp, [r5, #8]
 80042f8:	f8db 6004 	ldr.w	r6, [fp, #4]
 80042fc:	f026 0603 	bic.w	r6, r6, #3
 8004300:	42b4      	cmp	r4, r6
 8004302:	d803      	bhi.n	800430c <_malloc_r+0x2bc>
 8004304:	1b33      	subs	r3, r6, r4
 8004306:	2b0f      	cmp	r3, #15
 8004308:	f300 8095 	bgt.w	8004436 <_malloc_r+0x3e6>
 800430c:	4a4f      	ldr	r2, [pc, #316]	; (800444c <_malloc_r+0x3fc>)
 800430e:	eb0b 0306 	add.w	r3, fp, r6
 8004312:	6817      	ldr	r7, [r2, #0]
 8004314:	4a4e      	ldr	r2, [pc, #312]	; (8004450 <_malloc_r+0x400>)
 8004316:	3710      	adds	r7, #16
 8004318:	6811      	ldr	r1, [r2, #0]
 800431a:	4427      	add	r7, r4
 800431c:	3101      	adds	r1, #1
 800431e:	d005      	beq.n	800432c <_malloc_r+0x2dc>
 8004320:	494c      	ldr	r1, [pc, #304]	; (8004454 <_malloc_r+0x404>)
 8004322:	3901      	subs	r1, #1
 8004324:	440f      	add	r7, r1
 8004326:	3101      	adds	r1, #1
 8004328:	4249      	negs	r1, r1
 800432a:	400f      	ands	r7, r1
 800432c:	4639      	mov	r1, r7
 800432e:	4648      	mov	r0, r9
 8004330:	9201      	str	r2, [sp, #4]
 8004332:	9300      	str	r3, [sp, #0]
 8004334:	f000 fb90 	bl	8004a58 <_sbrk_r>
 8004338:	f1b0 3fff 	cmp.w	r0, #4294967295
 800433c:	4680      	mov	r8, r0
 800433e:	d055      	beq.n	80043ec <_malloc_r+0x39c>
 8004340:	9b00      	ldr	r3, [sp, #0]
 8004342:	9a01      	ldr	r2, [sp, #4]
 8004344:	4283      	cmp	r3, r0
 8004346:	d901      	bls.n	800434c <_malloc_r+0x2fc>
 8004348:	45ab      	cmp	fp, r5
 800434a:	d14f      	bne.n	80043ec <_malloc_r+0x39c>
 800434c:	4842      	ldr	r0, [pc, #264]	; (8004458 <_malloc_r+0x408>)
 800434e:	4543      	cmp	r3, r8
 8004350:	6801      	ldr	r1, [r0, #0]
 8004352:	4682      	mov	sl, r0
 8004354:	eb07 0e01 	add.w	lr, r7, r1
 8004358:	f8c0 e000 	str.w	lr, [r0]
 800435c:	493f      	ldr	r1, [pc, #252]	; (800445c <_malloc_r+0x40c>)
 800435e:	d113      	bne.n	8004388 <_malloc_r+0x338>
 8004360:	420b      	tst	r3, r1
 8004362:	d111      	bne.n	8004388 <_malloc_r+0x338>
 8004364:	68ab      	ldr	r3, [r5, #8]
 8004366:	443e      	add	r6, r7
 8004368:	f046 0601 	orr.w	r6, r6, #1
 800436c:	605e      	str	r6, [r3, #4]
 800436e:	4a3c      	ldr	r2, [pc, #240]	; (8004460 <_malloc_r+0x410>)
 8004370:	f8da 3000 	ldr.w	r3, [sl]
 8004374:	6811      	ldr	r1, [r2, #0]
 8004376:	428b      	cmp	r3, r1
 8004378:	bf88      	it	hi
 800437a:	6013      	strhi	r3, [r2, #0]
 800437c:	4a39      	ldr	r2, [pc, #228]	; (8004464 <_malloc_r+0x414>)
 800437e:	6811      	ldr	r1, [r2, #0]
 8004380:	428b      	cmp	r3, r1
 8004382:	bf88      	it	hi
 8004384:	6013      	strhi	r3, [r2, #0]
 8004386:	e031      	b.n	80043ec <_malloc_r+0x39c>
 8004388:	6810      	ldr	r0, [r2, #0]
 800438a:	3001      	adds	r0, #1
 800438c:	bf1b      	ittet	ne
 800438e:	eba8 0303 	subne.w	r3, r8, r3
 8004392:	4473      	addne	r3, lr
 8004394:	f8c2 8000 	streq.w	r8, [r2]
 8004398:	f8ca 3000 	strne.w	r3, [sl]
 800439c:	f018 0007 	ands.w	r0, r8, #7
 80043a0:	bf1c      	itt	ne
 80043a2:	f1c0 0008 	rsbne	r0, r0, #8
 80043a6:	4480      	addne	r8, r0
 80043a8:	4b2a      	ldr	r3, [pc, #168]	; (8004454 <_malloc_r+0x404>)
 80043aa:	4447      	add	r7, r8
 80043ac:	4418      	add	r0, r3
 80043ae:	400f      	ands	r7, r1
 80043b0:	1bc7      	subs	r7, r0, r7
 80043b2:	4639      	mov	r1, r7
 80043b4:	4648      	mov	r0, r9
 80043b6:	f000 fb4f 	bl	8004a58 <_sbrk_r>
 80043ba:	1c43      	adds	r3, r0, #1
 80043bc:	bf04      	itt	eq
 80043be:	4640      	moveq	r0, r8
 80043c0:	2700      	moveq	r7, #0
 80043c2:	f8da 3000 	ldr.w	r3, [sl]
 80043c6:	eba0 0008 	sub.w	r0, r0, r8
 80043ca:	443b      	add	r3, r7
 80043cc:	4407      	add	r7, r0
 80043ce:	f047 0701 	orr.w	r7, r7, #1
 80043d2:	45ab      	cmp	fp, r5
 80043d4:	f8c5 8008 	str.w	r8, [r5, #8]
 80043d8:	f8ca 3000 	str.w	r3, [sl]
 80043dc:	f8c8 7004 	str.w	r7, [r8, #4]
 80043e0:	d0c5      	beq.n	800436e <_malloc_r+0x31e>
 80043e2:	2e0f      	cmp	r6, #15
 80043e4:	d810      	bhi.n	8004408 <_malloc_r+0x3b8>
 80043e6:	2301      	movs	r3, #1
 80043e8:	f8c8 3004 	str.w	r3, [r8, #4]
 80043ec:	68ab      	ldr	r3, [r5, #8]
 80043ee:	685a      	ldr	r2, [r3, #4]
 80043f0:	f022 0203 	bic.w	r2, r2, #3
 80043f4:	4294      	cmp	r4, r2
 80043f6:	eba2 0304 	sub.w	r3, r2, r4
 80043fa:	d801      	bhi.n	8004400 <_malloc_r+0x3b0>
 80043fc:	2b0f      	cmp	r3, #15
 80043fe:	dc1a      	bgt.n	8004436 <_malloc_r+0x3e6>
 8004400:	4648      	mov	r0, r9
 8004402:	f000 f851 	bl	80044a8 <__malloc_unlock>
 8004406:	e630      	b.n	800406a <_malloc_r+0x1a>
 8004408:	2205      	movs	r2, #5
 800440a:	f8db 3004 	ldr.w	r3, [fp, #4]
 800440e:	3e0c      	subs	r6, #12
 8004410:	f026 0607 	bic.w	r6, r6, #7
 8004414:	f003 0301 	and.w	r3, r3, #1
 8004418:	4333      	orrs	r3, r6
 800441a:	f8cb 3004 	str.w	r3, [fp, #4]
 800441e:	2e0f      	cmp	r6, #15
 8004420:	eb0b 0306 	add.w	r3, fp, r6
 8004424:	605a      	str	r2, [r3, #4]
 8004426:	609a      	str	r2, [r3, #8]
 8004428:	d9a1      	bls.n	800436e <_malloc_r+0x31e>
 800442a:	f10b 0108 	add.w	r1, fp, #8
 800442e:	4648      	mov	r0, r9
 8004430:	f7ff fd3c 	bl	8003eac <_free_r>
 8004434:	e79b      	b.n	800436e <_malloc_r+0x31e>
 8004436:	68ae      	ldr	r6, [r5, #8]
 8004438:	f044 0201 	orr.w	r2, r4, #1
 800443c:	f043 0301 	orr.w	r3, r3, #1
 8004440:	4434      	add	r4, r6
 8004442:	6072      	str	r2, [r6, #4]
 8004444:	60ac      	str	r4, [r5, #8]
 8004446:	6063      	str	r3, [r4, #4]
 8004448:	e634      	b.n	80040b4 <_malloc_r+0x64>
 800444a:	bf00      	nop
 800444c:	200006f8 	.word	0x200006f8
 8004450:	20000500 	.word	0x20000500
 8004454:	00000080 	.word	0x00000080
 8004458:	200006c8 	.word	0x200006c8
 800445c:	0000007f 	.word	0x0000007f
 8004460:	200006f0 	.word	0x200006f0
 8004464:	200006f4 	.word	0x200006f4

08004468 <memchr>:
 8004468:	b510      	push	{r4, lr}
 800446a:	b2c9      	uxtb	r1, r1
 800446c:	4402      	add	r2, r0
 800446e:	4290      	cmp	r0, r2
 8004470:	4603      	mov	r3, r0
 8004472:	d101      	bne.n	8004478 <memchr+0x10>
 8004474:	2000      	movs	r0, #0
 8004476:	bd10      	pop	{r4, pc}
 8004478:	781c      	ldrb	r4, [r3, #0]
 800447a:	3001      	adds	r0, #1
 800447c:	428c      	cmp	r4, r1
 800447e:	d1f6      	bne.n	800446e <memchr+0x6>
 8004480:	4618      	mov	r0, r3
 8004482:	bd10      	pop	{r4, pc}

08004484 <memcpy>:
 8004484:	b510      	push	{r4, lr}
 8004486:	1e43      	subs	r3, r0, #1
 8004488:	440a      	add	r2, r1
 800448a:	4291      	cmp	r1, r2
 800448c:	d100      	bne.n	8004490 <memcpy+0xc>
 800448e:	bd10      	pop	{r4, pc}
 8004490:	f811 4b01 	ldrb.w	r4, [r1], #1
 8004494:	f803 4f01 	strb.w	r4, [r3, #1]!
 8004498:	e7f7      	b.n	800448a <memcpy+0x6>
	...

0800449c <__malloc_lock>:
 800449c:	4801      	ldr	r0, [pc, #4]	; (80044a4 <__malloc_lock+0x8>)
 800449e:	f000 bb92 	b.w	8004bc6 <__retarget_lock_acquire_recursive>
 80044a2:	bf00      	nop
 80044a4:	20000704 	.word	0x20000704

080044a8 <__malloc_unlock>:
 80044a8:	4801      	ldr	r0, [pc, #4]	; (80044b0 <__malloc_unlock+0x8>)
 80044aa:	f000 bb8d 	b.w	8004bc8 <__retarget_lock_release_recursive>
 80044ae:	bf00      	nop
 80044b0:	20000704 	.word	0x20000704

080044b4 <_Balloc>:
 80044b4:	b570      	push	{r4, r5, r6, lr}
 80044b6:	6a45      	ldr	r5, [r0, #36]	; 0x24
 80044b8:	4604      	mov	r4, r0
 80044ba:	460e      	mov	r6, r1
 80044bc:	b93d      	cbnz	r5, 80044ce <_Balloc+0x1a>
 80044be:	2010      	movs	r0, #16
 80044c0:	f7ff fdbe 	bl	8004040 <malloc>
 80044c4:	6260      	str	r0, [r4, #36]	; 0x24
 80044c6:	6045      	str	r5, [r0, #4]
 80044c8:	6085      	str	r5, [r0, #8]
 80044ca:	6005      	str	r5, [r0, #0]
 80044cc:	60c5      	str	r5, [r0, #12]
 80044ce:	6a65      	ldr	r5, [r4, #36]	; 0x24
 80044d0:	68eb      	ldr	r3, [r5, #12]
 80044d2:	b183      	cbz	r3, 80044f6 <_Balloc+0x42>
 80044d4:	6a63      	ldr	r3, [r4, #36]	; 0x24
 80044d6:	68db      	ldr	r3, [r3, #12]
 80044d8:	f853 0026 	ldr.w	r0, [r3, r6, lsl #2]
 80044dc:	b9b8      	cbnz	r0, 800450e <_Balloc+0x5a>
 80044de:	2101      	movs	r1, #1
 80044e0:	fa01 f506 	lsl.w	r5, r1, r6
 80044e4:	1d6a      	adds	r2, r5, #5
 80044e6:	0092      	lsls	r2, r2, #2
 80044e8:	4620      	mov	r0, r4
 80044ea:	f000 fb3f 	bl	8004b6c <_calloc_r>
 80044ee:	b160      	cbz	r0, 800450a <_Balloc+0x56>
 80044f0:	6046      	str	r6, [r0, #4]
 80044f2:	6085      	str	r5, [r0, #8]
 80044f4:	e00e      	b.n	8004514 <_Balloc+0x60>
 80044f6:	2221      	movs	r2, #33	; 0x21
 80044f8:	2104      	movs	r1, #4
 80044fa:	4620      	mov	r0, r4
 80044fc:	f000 fb36 	bl	8004b6c <_calloc_r>
 8004500:	6a63      	ldr	r3, [r4, #36]	; 0x24
 8004502:	60e8      	str	r0, [r5, #12]
 8004504:	68db      	ldr	r3, [r3, #12]
 8004506:	2b00      	cmp	r3, #0
 8004508:	d1e4      	bne.n	80044d4 <_Balloc+0x20>
 800450a:	2000      	movs	r0, #0
 800450c:	bd70      	pop	{r4, r5, r6, pc}
 800450e:	6802      	ldr	r2, [r0, #0]
 8004510:	f843 2026 	str.w	r2, [r3, r6, lsl #2]
 8004514:	2300      	movs	r3, #0
 8004516:	6103      	str	r3, [r0, #16]
 8004518:	60c3      	str	r3, [r0, #12]
 800451a:	bd70      	pop	{r4, r5, r6, pc}

0800451c <_Bfree>:
 800451c:	b570      	push	{r4, r5, r6, lr}
 800451e:	6a44      	ldr	r4, [r0, #36]	; 0x24
 8004520:	4606      	mov	r6, r0
 8004522:	460d      	mov	r5, r1
 8004524:	b93c      	cbnz	r4, 8004536 <_Bfree+0x1a>
 8004526:	2010      	movs	r0, #16
 8004528:	f7ff fd8a 	bl	8004040 <malloc>
 800452c:	6270      	str	r0, [r6, #36]	; 0x24
 800452e:	6044      	str	r4, [r0, #4]
 8004530:	6084      	str	r4, [r0, #8]
 8004532:	6004      	str	r4, [r0, #0]
 8004534:	60c4      	str	r4, [r0, #12]
 8004536:	b13d      	cbz	r5, 8004548 <_Bfree+0x2c>
 8004538:	6a73      	ldr	r3, [r6, #36]	; 0x24
 800453a:	686a      	ldr	r2, [r5, #4]
 800453c:	68db      	ldr	r3, [r3, #12]
 800453e:	f853 1022 	ldr.w	r1, [r3, r2, lsl #2]
 8004542:	6029      	str	r1, [r5, #0]
 8004544:	f843 5022 	str.w	r5, [r3, r2, lsl #2]
 8004548:	bd70      	pop	{r4, r5, r6, pc}

0800454a <__multadd>:
 800454a:	e92d 41f0 	stmdb	sp!, {r4, r5, r6, r7, r8, lr}
 800454e:	461f      	mov	r7, r3
 8004550:	4606      	mov	r6, r0
 8004552:	460c      	mov	r4, r1
 8004554:	2300      	movs	r3, #0
 8004556:	690d      	ldr	r5, [r1, #16]
 8004558:	f101 0e14 	add.w	lr, r1, #20
 800455c:	f8de 0000 	ldr.w	r0, [lr]
 8004560:	3301      	adds	r3, #1
 8004562:	b281      	uxth	r1, r0
 8004564:	fb02 7101 	mla	r1, r2, r1, r7
 8004568:	0c00      	lsrs	r0, r0, #16
 800456a:	0c0f      	lsrs	r7, r1, #16
 800456c:	fb02 7000 	mla	r0, r2, r0, r7
 8004570:	b289      	uxth	r1, r1
 8004572:	eb01 4100 	add.w	r1, r1, r0, lsl #16
 8004576:	429d      	cmp	r5, r3
 8004578:	ea4f 4710 	mov.w	r7, r0, lsr #16
 800457c:	f84e 1b04 	str.w	r1, [lr], #4
 8004580:	dcec      	bgt.n	800455c <__multadd+0x12>
 8004582:	b1d7      	cbz	r7, 80045ba <__multadd+0x70>
 8004584:	68a3      	ldr	r3, [r4, #8]
 8004586:	429d      	cmp	r5, r3
 8004588:	db12      	blt.n	80045b0 <__multadd+0x66>
 800458a:	6861      	ldr	r1, [r4, #4]
 800458c:	4630      	mov	r0, r6
 800458e:	3101      	adds	r1, #1
 8004590:	f7ff ff90 	bl	80044b4 <_Balloc>
 8004594:	4680      	mov	r8, r0
 8004596:	6922      	ldr	r2, [r4, #16]
 8004598:	f104 010c 	add.w	r1, r4, #12
 800459c:	3202      	adds	r2, #2
 800459e:	0092      	lsls	r2, r2, #2
 80045a0:	300c      	adds	r0, #12
 80045a2:	f7ff ff6f 	bl	8004484 <memcpy>
 80045a6:	4621      	mov	r1, r4
 80045a8:	4630      	mov	r0, r6
 80045aa:	f7ff ffb7 	bl	800451c <_Bfree>
 80045ae:	4644      	mov	r4, r8
 80045b0:	eb04 0385 	add.w	r3, r4, r5, lsl #2
 80045b4:	3501      	adds	r5, #1
 80045b6:	615f      	str	r7, [r3, #20]
 80045b8:	6125      	str	r5, [r4, #16]
 80045ba:	4620      	mov	r0, r4
 80045bc:	e8bd 81f0 	ldmia.w	sp!, {r4, r5, r6, r7, r8, pc}

080045c0 <__hi0bits>:
 80045c0:	0c02      	lsrs	r2, r0, #16
 80045c2:	0412      	lsls	r2, r2, #16
 80045c4:	4603      	mov	r3, r0
 80045c6:	b9b2      	cbnz	r2, 80045f6 <__hi0bits+0x36>
 80045c8:	0403      	lsls	r3, r0, #16
 80045ca:	2010      	movs	r0, #16
 80045cc:	f013 4f7f 	tst.w	r3, #4278190080	; 0xff000000
 80045d0:	bf04      	itt	eq
 80045d2:	021b      	lsleq	r3, r3, #8
 80045d4:	3008      	addeq	r0, #8
 80045d6:	f013 4f70 	tst.w	r3, #4026531840	; 0xf0000000
 80045da:	bf04      	itt	eq
 80045dc:	011b      	lsleq	r3, r3, #4
 80045de:	3004      	addeq	r0, #4
 80045e0:	f013 4f40 	tst.w	r3, #3221225472	; 0xc0000000
 80045e4:	bf04      	itt	eq
 80045e6:	009b      	lsleq	r3, r3, #2
 80045e8:	3002      	addeq	r0, #2
 80045ea:	2b00      	cmp	r3, #0
 80045ec:	db06      	blt.n	80045fc <__hi0bits+0x3c>
 80045ee:	005b      	lsls	r3, r3, #1
 80045f0:	d503      	bpl.n	80045fa <__hi0bits+0x3a>
 80045f2:	3001      	adds	r0, #1
 80045f4:	4770      	bx	lr
 80045f6:	2000      	movs	r0, #0
 80045f8:	e7e8      	b.n	80045cc <__hi0bits+0xc>
 80045fa:	2020      	movs	r0, #32
 80045fc:	4770      	bx	lr

080045fe <__lo0bits>:
 80045fe:	6803      	ldr	r3, [r0, #0]
 8004600:	4601      	mov	r1, r0
 8004602:	f013 0207 	ands.w	r2, r3, #7
 8004606:	d00b      	beq.n	8004620 <__lo0bits+0x22>
 8004608:	07da      	lsls	r2, r3, #31
 800460a:	d423      	bmi.n	8004654 <__lo0bits+0x56>
 800460c:	0798      	lsls	r0, r3, #30
 800460e:	bf49      	itett	mi
 8004610:	085b      	lsrmi	r3, r3, #1
 8004612:	089b      	lsrpl	r3, r3, #2
 8004614:	2001      	movmi	r0, #1
 8004616:	600b      	strmi	r3, [r1, #0]
 8004618:	bf5c      	itt	pl
 800461a:	600b      	strpl	r3, [r1, #0]
 800461c:	2002      	movpl	r0, #2
 800461e:	4770      	bx	lr
 8004620:	b298      	uxth	r0, r3
 8004622:	b9a8      	cbnz	r0, 8004650 <__lo0bits+0x52>
 8004624:	2010      	movs	r0, #16
 8004626:	0c1b      	lsrs	r3, r3, #16
 8004628:	f013 0fff 	tst.w	r3, #255	; 0xff
 800462c:	bf04      	itt	eq
 800462e:	0a1b      	lsreq	r3, r3, #8
 8004630:	3008      	addeq	r0, #8
 8004632:	071a      	lsls	r2, r3, #28
 8004634:	bf04      	itt	eq
 8004636:	091b      	lsreq	r3, r3, #4
 8004638:	3004      	addeq	r0, #4
 800463a:	079a      	lsls	r2, r3, #30
 800463c:	bf04      	itt	eq
 800463e:	089b      	lsreq	r3, r3, #2
 8004640:	3002      	addeq	r0, #2
 8004642:	07da      	lsls	r2, r3, #31
 8004644:	d402      	bmi.n	800464c <__lo0bits+0x4e>
 8004646:	085b      	lsrs	r3, r3, #1
 8004648:	d006      	beq.n	8004658 <__lo0bits+0x5a>
 800464a:	3001      	adds	r0, #1
 800464c:	600b      	str	r3, [r1, #0]
 800464e:	4770      	bx	lr
 8004650:	4610      	mov	r0, r2
 8004652:	e7e9      	b.n	8004628 <__lo0bits+0x2a>
 8004654:	2000      	movs	r0, #0
 8004656:	4770      	bx	lr
 8004658:	2020      	movs	r0, #32
 800465a:	4770      	bx	lr

0800465c <__i2b>:
 800465c:	b510      	push	{r4, lr}
 800465e:	460c      	mov	r4, r1
 8004660:	2101      	movs	r1, #1
 8004662:	f7ff ff27 	bl	80044b4 <_Balloc>
 8004666:	2201      	movs	r2, #1
 8004668:	6144      	str	r4, [r0, #20]
 800466a:	6102      	str	r2, [r0, #16]
 800466c:	bd10      	pop	{r4, pc}

0800466e <__multiply>:
 800466e:	e92d 4ff7 	stmdb	sp!, {r0, r1, r2, r4, r5, r6, r7, r8, r9, sl, fp, lr}
 8004672:	4614      	mov	r4, r2
 8004674:	690a      	ldr	r2, [r1, #16]
 8004676:	6923      	ldr	r3, [r4, #16]
 8004678:	4689      	mov	r9, r1
 800467a:	429a      	cmp	r2, r3
 800467c:	bfbe      	ittt	lt
 800467e:	460b      	movlt	r3, r1
 8004680:	46a1      	movlt	r9, r4
 8004682:	461c      	movlt	r4, r3
 8004684:	f8d9 7010 	ldr.w	r7, [r9, #16]
 8004688:	f8d4 a010 	ldr.w	sl, [r4, #16]
 800468c:	f8d9 3008 	ldr.w	r3, [r9, #8]
 8004690:	f8d9 1004 	ldr.w	r1, [r9, #4]
 8004694:	eb07 060a 	add.w	r6, r7, sl
 8004698:	429e      	cmp	r6, r3
 800469a:	bfc8      	it	gt
 800469c:	3101      	addgt	r1, #1
 800469e:	f7ff ff09 	bl	80044b4 <_Balloc>
 80046a2:	f100 0514 	add.w	r5, r0, #20
 80046a6:	462b      	mov	r3, r5
 80046a8:	2200      	movs	r2, #0
 80046aa:	eb05 0886 	add.w	r8, r5, r6, lsl #2
 80046ae:	4543      	cmp	r3, r8
 80046b0:	d316      	bcc.n	80046e0 <__multiply+0x72>
 80046b2:	f104 0214 	add.w	r2, r4, #20
 80046b6:	f109 0114 	add.w	r1, r9, #20
 80046ba:	eb02 038a 	add.w	r3, r2, sl, lsl #2
 80046be:	eb01 0787 	add.w	r7, r1, r7, lsl #2
 80046c2:	9301      	str	r3, [sp, #4]
 80046c4:	9c01      	ldr	r4, [sp, #4]
 80046c6:	4613      	mov	r3, r2
 80046c8:	4294      	cmp	r4, r2
 80046ca:	d80c      	bhi.n	80046e6 <__multiply+0x78>
 80046cc:	2e00      	cmp	r6, #0
 80046ce:	dd03      	ble.n	80046d8 <__multiply+0x6a>
 80046d0:	f858 3d04 	ldr.w	r3, [r8, #-4]!
 80046d4:	2b00      	cmp	r3, #0
 80046d6:	d054      	beq.n	8004782 <__multiply+0x114>
 80046d8:	6106      	str	r6, [r0, #16]
 80046da:	b003      	add	sp, #12
 80046dc:	e8bd 8ff0 	ldmia.w	sp!, {r4, r5, r6, r7, r8, r9, sl, fp, pc}
 80046e0:	f843 2b04 	str.w	r2, [r3], #4
 80046e4:	e7e3      	b.n	80046ae <__multiply+0x40>
 80046e6:	f8b3 a000 	ldrh.w	sl, [r3]
 80046ea:	3204      	adds	r2, #4
 80046ec:	f1ba 0f00 	cmp.w	sl, #0
 80046f0:	d020      	beq.n	8004734 <__multiply+0xc6>
 80046f2:	46ae      	mov	lr, r5
 80046f4:	4689      	mov	r9, r1
 80046f6:	f04f 0c00 	mov.w	ip, #0
 80046fa:	f859 4b04 	ldr.w	r4, [r9], #4
 80046fe:	f8be b000 	ldrh.w	fp, [lr]
 8004702:	b2a3      	uxth	r3, r4
 8004704:	fb0a b303 	mla	r3, sl, r3, fp
 8004708:	ea4f 4b14 	mov.w	fp, r4, lsr #16
 800470c:	f8de 4000 	ldr.w	r4, [lr]
 8004710:	4463      	add	r3, ip
 8004712:	ea4f 4c14 	mov.w	ip, r4, lsr #16
 8004716:	fb0a c40b 	mla	r4, sl, fp, ip
 800471a:	eb04 4413 	add.w	r4, r4, r3, lsr #16
 800471e:	b29b      	uxth	r3, r3
 8004720:	ea43 4304 	orr.w	r3, r3, r4, lsl #16
 8004724:	454f      	cmp	r7, r9
 8004726:	ea4f 4c14 	mov.w	ip, r4, lsr #16
 800472a:	f84e 3b04 	str.w	r3, [lr], #4
 800472e:	d8e4      	bhi.n	80046fa <__multiply+0x8c>
 8004730:	f8ce c000 	str.w	ip, [lr]
 8004734:	f832 9c02 	ldrh.w	r9, [r2, #-2]
 8004738:	f1b9 0f00 	cmp.w	r9, #0
 800473c:	d01f      	beq.n	800477e <__multiply+0x110>
 800473e:	46ae      	mov	lr, r5
 8004740:	468c      	mov	ip, r1
 8004742:	f04f 0a00 	mov.w	sl, #0
 8004746:	682b      	ldr	r3, [r5, #0]
 8004748:	f8bc 4000 	ldrh.w	r4, [ip]
 800474c:	f8be b002 	ldrh.w	fp, [lr, #2]
 8004750:	b29b      	uxth	r3, r3
 8004752:	fb09 b404 	mla	r4, r9, r4, fp
 8004756:	44a2      	add	sl, r4
 8004758:	ea43 430a 	orr.w	r3, r3, sl, lsl #16
 800475c:	f84e 3b04 	str.w	r3, [lr], #4
 8004760:	f85c 3b04 	ldr.w	r3, [ip], #4
 8004764:	f8be 4000 	ldrh.w	r4, [lr]
 8004768:	0c1b      	lsrs	r3, r3, #16
 800476a:	fb09 4303 	mla	r3, r9, r3, r4
 800476e:	4567      	cmp	r7, ip
 8004770:	eb03 431a 	add.w	r3, r3, sl, lsr #16
 8004774:	ea4f 4a13 	mov.w	sl, r3, lsr #16
 8004778:	d8e6      	bhi.n	8004748 <__multiply+0xda>
 800477a:	f8ce 3000 	str.w	r3, [lr]
 800477e:	3504      	adds	r5, #4
 8004780:	e7a0      	b.n	80046c4 <__multiply+0x56>
 8004782:	3e01      	subs	r6, #1
 8004784:	e7a2      	b.n	80046cc <__multiply+0x5e>
	...

08004788 <__pow5mult>:
 8004788:	e92d 43f8 	stmdb	sp!, {r3, r4, r5, r6, r7, r8, r9, lr}
 800478c:	4615      	mov	r5, r2
 800478e:	f012 0203 	ands.w	r2, r2, #3
 8004792:	4606      	mov	r6, r0
 8004794:	460f      	mov	r7, r1
 8004796:	d007      	beq.n	80047a8 <__pow5mult+0x20>
 8004798:	4c21      	ldr	r4, [pc, #132]	; (8004820 <__pow5mult+0x98>)
 800479a:	3a01      	subs	r2, #1
 800479c:	2300      	movs	r3, #0
 800479e:	f854 2022 	ldr.w	r2, [r4, r2, lsl #2]
 80047a2:	f7ff fed2 	bl	800454a <__multadd>
 80047a6:	4607      	mov	r7, r0
 80047a8:	10ad      	asrs	r5, r5, #2
 80047aa:	d035      	beq.n	8004818 <__pow5mult+0x90>
 80047ac:	6a74      	ldr	r4, [r6, #36]	; 0x24
 80047ae:	b93c      	cbnz	r4, 80047c0 <__pow5mult+0x38>
 80047b0:	2010      	movs	r0, #16
 80047b2:	f7ff fc45 	bl	8004040 <malloc>
 80047b6:	6270      	str	r0, [r6, #36]	; 0x24
 80047b8:	6044      	str	r4, [r0, #4]
 80047ba:	6084      	str	r4, [r0, #8]
 80047bc:	6004      	str	r4, [r0, #0]
 80047be:	60c4      	str	r4, [r0, #12]
 80047c0:	f8d6 8024 	ldr.w	r8, [r6, #36]	; 0x24
 80047c4:	f8d8 4008 	ldr.w	r4, [r8, #8]
 80047c8:	b94c      	cbnz	r4, 80047de <__pow5mult+0x56>
 80047ca:	f240 2171 	movw	r1, #625	; 0x271
 80047ce:	4630      	mov	r0, r6
 80047d0:	f7ff ff44 	bl	800465c <__i2b>
 80047d4:	2300      	movs	r3, #0
 80047d6:	4604      	mov	r4, r0
 80047d8:	f8c8 0008 	str.w	r0, [r8, #8]
 80047dc:	6003      	str	r3, [r0, #0]
 80047de:	f04f 0800 	mov.w	r8, #0
 80047e2:	07eb      	lsls	r3, r5, #31
 80047e4:	d50a      	bpl.n	80047fc <__pow5mult+0x74>
 80047e6:	4639      	mov	r1, r7
 80047e8:	4622      	mov	r2, r4
 80047ea:	4630      	mov	r0, r6
 80047ec:	f7ff ff3f 	bl	800466e <__multiply>
 80047f0:	4681      	mov	r9, r0
 80047f2:	4639      	mov	r1, r7
 80047f4:	4630      	mov	r0, r6
 80047f6:	f7ff fe91 	bl	800451c <_Bfree>
 80047fa:	464f      	mov	r7, r9
 80047fc:	106d      	asrs	r5, r5, #1
 80047fe:	d00b      	beq.n	8004818 <__pow5mult+0x90>
 8004800:	6820      	ldr	r0, [r4, #0]
 8004802:	b938      	cbnz	r0, 8004814 <__pow5mult+0x8c>
 8004804:	4622      	mov	r2, r4
 8004806:	4621      	mov	r1, r4
 8004808:	4630      	mov	r0, r6
 800480a:	f7ff ff30 	bl	800466e <__multiply>
 800480e:	6020      	str	r0, [r4, #0]
 8004810:	f8c0 8000 	str.w	r8, [r0]
 8004814:	4604      	mov	r4, r0
 8004816:	e7e4      	b.n	80047e2 <__pow5mult+0x5a>
 8004818:	4638      	mov	r0, r7
 800481a:	e8bd 83f8 	ldmia.w	sp!, {r3, r4, r5, r6, r7, r8, r9, pc}
 800481e:	bf00      	nop
 8004820:	08005600 	.word	0x08005600

08004824 <__lshift>:
 8004824:	e92d 47f0 	stmdb	sp!, {r4, r5, r6, r7, r8, r9, sl, lr}
 8004828:	460c      	mov	r4, r1
 800482a:	4607      	mov	r7, r0
 800482c:	4616      	mov	r6, r2
 800482e:	6923      	ldr	r3, [r4, #16]
 8004830:	ea4f 1a62 	mov.w	sl, r2, asr #5
 8004834:	eb0a 0903 	add.w	r9, sl, r3
 8004838:	6849      	ldr	r1, [r1, #4]
 800483a:	68a3      	ldr	r3, [r4, #8]
 800483c:	f109 0501 	add.w	r5, r9, #1
 8004840:	42ab      	cmp	r3, r5
 8004842:	db31      	blt.n	80048a8 <__lshift+0x84>
 8004844:	4638      	mov	r0, r7
 8004846:	f7ff fe35 	bl	80044b4 <_Balloc>
 800484a:	2200      	movs	r2, #0
 800484c:	4680      	mov	r8, r0
 800484e:	4611      	mov	r1, r2
 8004850:	f100 0314 	add.w	r3, r0, #20
 8004854:	4552      	cmp	r2, sl
 8004856:	db2a      	blt.n	80048ae <__lshift+0x8a>
 8004858:	6920      	ldr	r0, [r4, #16]
 800485a:	ea2a 7aea 	bic.w	sl, sl, sl, asr #31
 800485e:	f104 0114 	add.w	r1, r4, #20
 8004862:	f016 021f 	ands.w	r2, r6, #31
 8004866:	eb03 038a 	add.w	r3, r3, sl, lsl #2
 800486a:	eb01 0e80 	add.w	lr, r1, r0, lsl #2
 800486e:	d022      	beq.n	80048b6 <__lshift+0x92>
 8004870:	2000      	movs	r0, #0
 8004872:	f1c2 0c20 	rsb	ip, r2, #32
 8004876:	680e      	ldr	r6, [r1, #0]
 8004878:	4096      	lsls	r6, r2
 800487a:	4330      	orrs	r0, r6
 800487c:	f843 0b04 	str.w	r0, [r3], #4
 8004880:	f851 0b04 	ldr.w	r0, [r1], #4
 8004884:	458e      	cmp	lr, r1
 8004886:	fa20 f00c 	lsr.w	r0, r0, ip
 800488a:	d8f4      	bhi.n	8004876 <__lshift+0x52>
 800488c:	6018      	str	r0, [r3, #0]
 800488e:	b108      	cbz	r0, 8004894 <__lshift+0x70>
 8004890:	f109 0502 	add.w	r5, r9, #2
 8004894:	3d01      	subs	r5, #1
 8004896:	4638      	mov	r0, r7
 8004898:	f8c8 5010 	str.w	r5, [r8, #16]
 800489c:	4621      	mov	r1, r4
 800489e:	f7ff fe3d 	bl	800451c <_Bfree>
 80048a2:	4640      	mov	r0, r8
 80048a4:	e8bd 87f0 	ldmia.w	sp!, {r4, r5, r6, r7, r8, r9, sl, pc}
 80048a8:	3101      	adds	r1, #1
 80048aa:	005b      	lsls	r3, r3, #1
 80048ac:	e7c8      	b.n	8004840 <__lshift+0x1c>
 80048ae:	f843 1022 	str.w	r1, [r3, r2, lsl #2]
 80048b2:	3201      	adds	r2, #1
 80048b4:	e7ce      	b.n	8004854 <__lshift+0x30>
 80048b6:	3b04      	subs	r3, #4
 80048b8:	f851 2b04 	ldr.w	r2, [r1], #4
 80048bc:	458e      	cmp	lr, r1
 80048be:	f843 2f04 	str.w	r2, [r3, #4]!
 80048c2:	d8f9      	bhi.n	80048b8 <__lshift+0x94>
 80048c4:	e7e6      	b.n	8004894 <__lshift+0x70>

080048c6 <__mcmp>:
 80048c6:	6903      	ldr	r3, [r0, #16]
 80048c8:	690a      	ldr	r2, [r1, #16]
 80048ca:	b530      	push	{r4, r5, lr}
 80048cc:	1a9b      	subs	r3, r3, r2
 80048ce:	d10c      	bne.n	80048ea <__mcmp+0x24>
 80048d0:	0092      	lsls	r2, r2, #2
 80048d2:	3014      	adds	r0, #20
 80048d4:	3114      	adds	r1, #20
 80048d6:	1884      	adds	r4, r0, r2
 80048d8:	4411      	add	r1, r2
 80048da:	f854 5d04 	ldr.w	r5, [r4, #-4]!
 80048de:	f851 2d04 	ldr.w	r2, [r1, #-4]!
 80048e2:	4295      	cmp	r5, r2
 80048e4:	d003      	beq.n	80048ee <__mcmp+0x28>
 80048e6:	d305      	bcc.n	80048f4 <__mcmp+0x2e>
 80048e8:	2301      	movs	r3, #1
 80048ea:	4618      	mov	r0, r3
 80048ec:	bd30      	pop	{r4, r5, pc}
 80048ee:	42a0      	cmp	r0, r4
 80048f0:	d3f3      	bcc.n	80048da <__mcmp+0x14>
 80048f2:	e7fa      	b.n	80048ea <__mcmp+0x24>
 80048f4:	f04f 33ff 	mov.w	r3, #4294967295
 80048f8:	e7f7      	b.n	80048ea <__mcmp+0x24>

080048fa <__mdiff>:
 80048fa:	e92d 47f0 	stmdb	sp!, {r4, r5, r6, r7, r8, r9, sl, lr}
 80048fe:	460d      	mov	r5, r1
 8004900:	4607      	mov	r7, r0
 8004902:	4611      	mov	r1, r2
 8004904:	4628      	mov	r0, r5
 8004906:	4614      	mov	r4, r2
 8004908:	f7ff ffdd 	bl	80048c6 <__mcmp>
 800490c:	1e06      	subs	r6, r0, #0
 800490e:	d108      	bne.n	8004922 <__mdiff+0x28>
 8004910:	4631      	mov	r1, r6
 8004912:	4638      	mov	r0, r7
 8004914:	f7ff fdce 	bl	80044b4 <_Balloc>
 8004918:	2301      	movs	r3, #1
 800491a:	6146      	str	r6, [r0, #20]
 800491c:	6103      	str	r3, [r0, #16]
 800491e:	e8bd 87f0 	ldmia.w	sp!, {r4, r5, r6, r7, r8, r9, sl, pc}
 8004922:	bfa4      	itt	ge
 8004924:	4623      	movge	r3, r4
 8004926:	462c      	movge	r4, r5
 8004928:	4638      	mov	r0, r7
 800492a:	6861      	ldr	r1, [r4, #4]
 800492c:	bfa6      	itte	ge
 800492e:	461d      	movge	r5, r3
 8004930:	2600      	movge	r6, #0
 8004932:	2601      	movlt	r6, #1
 8004934:	f7ff fdbe 	bl	80044b4 <_Balloc>
 8004938:	f04f 0c00 	mov.w	ip, #0
 800493c:	60c6      	str	r6, [r0, #12]
 800493e:	692b      	ldr	r3, [r5, #16]
 8004940:	6926      	ldr	r6, [r4, #16]
 8004942:	f104 0214 	add.w	r2, r4, #20
 8004946:	f105 0914 	add.w	r9, r5, #20
 800494a:	eb02 0786 	add.w	r7, r2, r6, lsl #2
 800494e:	eb09 0883 	add.w	r8, r9, r3, lsl #2
 8004952:	f100 0114 	add.w	r1, r0, #20
 8004956:	f852 ab04 	ldr.w	sl, [r2], #4
 800495a:	f859 5b04 	ldr.w	r5, [r9], #4
 800495e:	fa1f f38a 	uxth.w	r3, sl
 8004962:	4463      	add	r3, ip
 8004964:	b2ac      	uxth	r4, r5
 8004966:	1b1b      	subs	r3, r3, r4
 8004968:	0c2c      	lsrs	r4, r5, #16
 800496a:	ebc4 441a 	rsb	r4, r4, sl, lsr #16
 800496e:	eb04 4423 	add.w	r4, r4, r3, asr #16
 8004972:	b29b      	uxth	r3, r3
 8004974:	ea4f 4c24 	mov.w	ip, r4, asr #16
 8004978:	45c8      	cmp	r8, r9
 800497a:	ea43 4404 	orr.w	r4, r3, r4, lsl #16
 800497e:	4696      	mov	lr, r2
 8004980:	f841 4b04 	str.w	r4, [r1], #4
 8004984:	d8e7      	bhi.n	8004956 <__mdiff+0x5c>
 8004986:	45be      	cmp	lr, r7
 8004988:	d305      	bcc.n	8004996 <__mdiff+0x9c>
 800498a:	f851 3d04 	ldr.w	r3, [r1, #-4]!
 800498e:	b18b      	cbz	r3, 80049b4 <__mdiff+0xba>
 8004990:	6106      	str	r6, [r0, #16]
 8004992:	e8bd 87f0 	ldmia.w	sp!, {r4, r5, r6, r7, r8, r9, sl, pc}
 8004996:	f85e 4b04 	ldr.w	r4, [lr], #4
 800499a:	b2a2      	uxth	r2, r4
 800499c:	4462      	add	r2, ip
 800499e:	1413      	asrs	r3, r2, #16
 80049a0:	eb03 4314 	add.w	r3, r3, r4, lsr #16
 80049a4:	b292      	uxth	r2, r2
 80049a6:	ea42 4203 	orr.w	r2, r2, r3, lsl #16
 80049aa:	ea4f 4c23 	mov.w	ip, r3, asr #16
 80049ae:	f841 2b04 	str.w	r2, [r1], #4
 80049b2:	e7e8      	b.n	8004986 <__mdiff+0x8c>
 80049b4:	3e01      	subs	r6, #1
 80049b6:	e7e8      	b.n	800498a <__mdiff+0x90>

080049b8 <__d2b>:
 80049b8:	e92d 41f3 	stmdb	sp!, {r0, r1, r4, r5, r6, r7, r8, lr}
 80049bc:	461c      	mov	r4, r3
 80049be:	2101      	movs	r1, #1
 80049c0:	4690      	mov	r8, r2
 80049c2:	9e08      	ldr	r6, [sp, #32]
 80049c4:	9d09      	ldr	r5, [sp, #36]	; 0x24
 80049c6:	f7ff fd75 	bl	80044b4 <_Balloc>
 80049ca:	f3c4 0213 	ubfx	r2, r4, #0, #20
 80049ce:	f3c4 540a 	ubfx	r4, r4, #20, #11
 80049d2:	4607      	mov	r7, r0
 80049d4:	bb34      	cbnz	r4, 8004a24 <__d2b+0x6c>
 80049d6:	9201      	str	r2, [sp, #4]
 80049d8:	f1b8 0f00 	cmp.w	r8, #0
 80049dc:	d027      	beq.n	8004a2e <__d2b+0x76>
 80049de:	a802      	add	r0, sp, #8
 80049e0:	f840 8d08 	str.w	r8, [r0, #-8]!
 80049e4:	f7ff fe0b 	bl	80045fe <__lo0bits>
 80049e8:	9900      	ldr	r1, [sp, #0]
 80049ea:	b1f0      	cbz	r0, 8004a2a <__d2b+0x72>
 80049ec:	9a01      	ldr	r2, [sp, #4]
 80049ee:	f1c0 0320 	rsb	r3, r0, #32
 80049f2:	fa02 f303 	lsl.w	r3, r2, r3
 80049f6:	430b      	orrs	r3, r1
 80049f8:	40c2      	lsrs	r2, r0
 80049fa:	617b      	str	r3, [r7, #20]
 80049fc:	9201      	str	r2, [sp, #4]
 80049fe:	9b01      	ldr	r3, [sp, #4]
 8004a00:	2b00      	cmp	r3, #0
 8004a02:	bf14      	ite	ne
 8004a04:	2102      	movne	r1, #2
 8004a06:	2101      	moveq	r1, #1
 8004a08:	61bb      	str	r3, [r7, #24]
 8004a0a:	6139      	str	r1, [r7, #16]
 8004a0c:	b1c4      	cbz	r4, 8004a40 <__d2b+0x88>
 8004a0e:	f2a4 4433 	subw	r4, r4, #1075	; 0x433
 8004a12:	4404      	add	r4, r0
 8004a14:	6034      	str	r4, [r6, #0]
 8004a16:	f1c0 0035 	rsb	r0, r0, #53	; 0x35
 8004a1a:	6028      	str	r0, [r5, #0]
 8004a1c:	4638      	mov	r0, r7
 8004a1e:	b002      	add	sp, #8
 8004a20:	e8bd 81f0 	ldmia.w	sp!, {r4, r5, r6, r7, r8, pc}
 8004a24:	f442 1280 	orr.w	r2, r2, #1048576	; 0x100000
 8004a28:	e7d5      	b.n	80049d6 <__d2b+0x1e>
 8004a2a:	6179      	str	r1, [r7, #20]
 8004a2c:	e7e7      	b.n	80049fe <__d2b+0x46>
 8004a2e:	a801      	add	r0, sp, #4
 8004a30:	f7ff fde5 	bl	80045fe <__lo0bits>
 8004a34:	2101      	movs	r1, #1
 8004a36:	9b01      	ldr	r3, [sp, #4]
 8004a38:	6139      	str	r1, [r7, #16]
 8004a3a:	617b      	str	r3, [r7, #20]
 8004a3c:	3020      	adds	r0, #32
 8004a3e:	e7e5      	b.n	8004a0c <__d2b+0x54>
 8004a40:	f2a0 4032 	subw	r0, r0, #1074	; 0x432
 8004a44:	eb07 0381 	add.w	r3, r7, r1, lsl #2
 8004a48:	6030      	str	r0, [r6, #0]
 8004a4a:	6918      	ldr	r0, [r3, #16]
 8004a4c:	f7ff fdb8 	bl	80045c0 <__hi0bits>
 8004a50:	ebc0 1041 	rsb	r0, r0, r1, lsl #5
 8004a54:	e7e1      	b.n	8004a1a <__d2b+0x62>
	...

08004a58 <_sbrk_r>:
 8004a58:	b538      	push	{r3, r4, r5, lr}
 8004a5a:	2300      	movs	r3, #0
 8004a5c:	4c05      	ldr	r4, [pc, #20]	; (8004a74 <_sbrk_r+0x1c>)
 8004a5e:	4605      	mov	r5, r0
 8004a60:	4608      	mov	r0, r1
 8004a62:	6023      	str	r3, [r4, #0]
 8004a64:	f7fd fa4a 	bl	8001efc <_sbrk>
 8004a68:	1c43      	adds	r3, r0, #1
 8004a6a:	d102      	bne.n	8004a72 <_sbrk_r+0x1a>
 8004a6c:	6823      	ldr	r3, [r4, #0]
 8004a6e:	b103      	cbz	r3, 8004a72 <_sbrk_r+0x1a>
 8004a70:	602b      	str	r3, [r5, #0]
 8004a72:	bd38      	pop	{r3, r4, r5, pc}
 8004a74:	200006fc 	.word	0x200006fc

08004a78 <__ssprint_r>:
 8004a78:	6893      	ldr	r3, [r2, #8]
 8004a7a:	e92d 4ff7 	stmdb	sp!, {r0, r1, r2, r4, r5, r6, r7, r8, r9, sl, fp, lr}
 8004a7e:	4681      	mov	r9, r0
 8004a80:	460c      	mov	r4, r1
 8004a82:	4617      	mov	r7, r2
 8004a84:	2b00      	cmp	r3, #0
 8004a86:	d060      	beq.n	8004b4a <__ssprint_r+0xd2>
 8004a88:	f04f 0b00 	mov.w	fp, #0
 8004a8c:	465e      	mov	r6, fp
 8004a8e:	f8d2 a000 	ldr.w	sl, [r2]
 8004a92:	b356      	cbz	r6, 8004aea <__ssprint_r+0x72>
 8004a94:	68a3      	ldr	r3, [r4, #8]
 8004a96:	429e      	cmp	r6, r3
 8004a98:	d344      	bcc.n	8004b24 <__ssprint_r+0xac>
 8004a9a:	89a2      	ldrh	r2, [r4, #12]
 8004a9c:	f412 6f90 	tst.w	r2, #1152	; 0x480
 8004aa0:	d03e      	beq.n	8004b20 <__ssprint_r+0xa8>
 8004aa2:	2302      	movs	r3, #2
 8004aa4:	6825      	ldr	r5, [r4, #0]
 8004aa6:	6921      	ldr	r1, [r4, #16]
 8004aa8:	eba5 0801 	sub.w	r8, r5, r1
 8004aac:	6965      	ldr	r5, [r4, #20]
 8004aae:	eb05 0545 	add.w	r5, r5, r5, lsl #1
 8004ab2:	fb95 f5f3 	sdiv	r5, r5, r3
 8004ab6:	f108 0301 	add.w	r3, r8, #1
 8004aba:	4433      	add	r3, r6
 8004abc:	429d      	cmp	r5, r3
 8004abe:	bf38      	it	cc
 8004ac0:	461d      	movcc	r5, r3
 8004ac2:	0553      	lsls	r3, r2, #21
 8004ac4:	d546      	bpl.n	8004b54 <__ssprint_r+0xdc>
 8004ac6:	4629      	mov	r1, r5
 8004ac8:	4648      	mov	r0, r9
 8004aca:	f7ff fac1 	bl	8004050 <_malloc_r>
 8004ace:	b998      	cbnz	r0, 8004af8 <__ssprint_r+0x80>
 8004ad0:	230c      	movs	r3, #12
 8004ad2:	f8c9 3000 	str.w	r3, [r9]
 8004ad6:	89a3      	ldrh	r3, [r4, #12]
 8004ad8:	f04f 30ff 	mov.w	r0, #4294967295
 8004adc:	f043 0340 	orr.w	r3, r3, #64	; 0x40
 8004ae0:	81a3      	strh	r3, [r4, #12]
 8004ae2:	2300      	movs	r3, #0
 8004ae4:	60bb      	str	r3, [r7, #8]
 8004ae6:	607b      	str	r3, [r7, #4]
 8004ae8:	e031      	b.n	8004b4e <__ssprint_r+0xd6>
 8004aea:	f8da b000 	ldr.w	fp, [sl]
 8004aee:	f8da 6004 	ldr.w	r6, [sl, #4]
 8004af2:	f10a 0a08 	add.w	sl, sl, #8
 8004af6:	e7cc      	b.n	8004a92 <__ssprint_r+0x1a>
 8004af8:	4642      	mov	r2, r8
 8004afa:	6921      	ldr	r1, [r4, #16]
 8004afc:	9001      	str	r0, [sp, #4]
 8004afe:	f7ff fcc1 	bl	8004484 <memcpy>
 8004b02:	89a2      	ldrh	r2, [r4, #12]
 8004b04:	9b01      	ldr	r3, [sp, #4]
 8004b06:	f422 6290 	bic.w	r2, r2, #1152	; 0x480
 8004b0a:	f042 0280 	orr.w	r2, r2, #128	; 0x80
 8004b0e:	81a2      	strh	r2, [r4, #12]
 8004b10:	6123      	str	r3, [r4, #16]
 8004b12:	4443      	add	r3, r8
 8004b14:	6023      	str	r3, [r4, #0]
 8004b16:	4633      	mov	r3, r6
 8004b18:	6165      	str	r5, [r4, #20]
 8004b1a:	eba5 0508 	sub.w	r5, r5, r8
 8004b1e:	60a5      	str	r5, [r4, #8]
 8004b20:	429e      	cmp	r6, r3
 8004b22:	d200      	bcs.n	8004b26 <__ssprint_r+0xae>
 8004b24:	4633      	mov	r3, r6
 8004b26:	461a      	mov	r2, r3
 8004b28:	4659      	mov	r1, fp
 8004b2a:	6820      	ldr	r0, [r4, #0]
 8004b2c:	9301      	str	r3, [sp, #4]
 8004b2e:	f000 f85e 	bl	8004bee <memmove>
 8004b32:	68a2      	ldr	r2, [r4, #8]
 8004b34:	9b01      	ldr	r3, [sp, #4]
 8004b36:	1ad2      	subs	r2, r2, r3
 8004b38:	60a2      	str	r2, [r4, #8]
 8004b3a:	6822      	ldr	r2, [r4, #0]
 8004b3c:	4413      	add	r3, r2
 8004b3e:	6023      	str	r3, [r4, #0]
 8004b40:	68bb      	ldr	r3, [r7, #8]
 8004b42:	1b9e      	subs	r6, r3, r6
 8004b44:	60be      	str	r6, [r7, #8]
 8004b46:	2e00      	cmp	r6, #0
 8004b48:	d1cf      	bne.n	8004aea <__ssprint_r+0x72>
 8004b4a:	2000      	movs	r0, #0
 8004b4c:	6078      	str	r0, [r7, #4]
 8004b4e:	b003      	add	sp, #12
 8004b50:	e8bd 8ff0 	ldmia.w	sp!, {r4, r5, r6, r7, r8, r9, sl, fp, pc}
 8004b54:	462a      	mov	r2, r5
 8004b56:	4648      	mov	r0, r9
 8004b58:	f000 f86c 	bl	8004c34 <_realloc_r>
 8004b5c:	4603      	mov	r3, r0
 8004b5e:	2800      	cmp	r0, #0
 8004b60:	d1d6      	bne.n	8004b10 <__ssprint_r+0x98>
 8004b62:	6921      	ldr	r1, [r4, #16]
 8004b64:	4648      	mov	r0, r9
 8004b66:	f7ff f9a1 	bl	8003eac <_free_r>
 8004b6a:	e7b1      	b.n	8004ad0 <__ssprint_r+0x58>

08004b6c <_calloc_r>:
 8004b6c:	b510      	push	{r4, lr}
 8004b6e:	4351      	muls	r1, r2
 8004b70:	f7ff fa6e 	bl	8004050 <_malloc_r>
 8004b74:	4604      	mov	r4, r0
 8004b76:	b198      	cbz	r0, 8004ba0 <_calloc_r+0x34>
 8004b78:	f850 2c04 	ldr.w	r2, [r0, #-4]
 8004b7c:	f022 0203 	bic.w	r2, r2, #3
 8004b80:	3a04      	subs	r2, #4
 8004b82:	2a24      	cmp	r2, #36	; 0x24
 8004b84:	d81b      	bhi.n	8004bbe <_calloc_r+0x52>
 8004b86:	2a13      	cmp	r2, #19
 8004b88:	d917      	bls.n	8004bba <_calloc_r+0x4e>
 8004b8a:	2100      	movs	r1, #0
 8004b8c:	2a1b      	cmp	r2, #27
 8004b8e:	6001      	str	r1, [r0, #0]
 8004b90:	6041      	str	r1, [r0, #4]
 8004b92:	d807      	bhi.n	8004ba4 <_calloc_r+0x38>
 8004b94:	f100 0308 	add.w	r3, r0, #8
 8004b98:	2200      	movs	r2, #0
 8004b9a:	601a      	str	r2, [r3, #0]
 8004b9c:	605a      	str	r2, [r3, #4]
 8004b9e:	609a      	str	r2, [r3, #8]
 8004ba0:	4620      	mov	r0, r4
 8004ba2:	bd10      	pop	{r4, pc}
 8004ba4:	2a24      	cmp	r2, #36	; 0x24
 8004ba6:	6081      	str	r1, [r0, #8]
 8004ba8:	60c1      	str	r1, [r0, #12]
 8004baa:	bf11      	iteee	ne
 8004bac:	f100 0310 	addne.w	r3, r0, #16
 8004bb0:	6101      	streq	r1, [r0, #16]
 8004bb2:	f100 0318 	addeq.w	r3, r0, #24
 8004bb6:	6141      	streq	r1, [r0, #20]
 8004bb8:	e7ee      	b.n	8004b98 <_calloc_r+0x2c>
 8004bba:	4603      	mov	r3, r0
 8004bbc:	e7ec      	b.n	8004b98 <_calloc_r+0x2c>
 8004bbe:	2100      	movs	r1, #0
 8004bc0:	f000 f82f 	bl	8004c22 <memset>
 8004bc4:	e7ec      	b.n	8004ba0 <_calloc_r+0x34>

08004bc6 <__retarget_lock_acquire_recursive>:
 8004bc6:	4770      	bx	lr

08004bc8 <__retarget_lock_release_recursive>:
 8004bc8:	4770      	bx	lr

08004bca <__ascii_mbtowc>:
 8004bca:	b082      	sub	sp, #8
 8004bcc:	b901      	cbnz	r1, 8004bd0 <__ascii_mbtowc+0x6>
 8004bce:	a901      	add	r1, sp, #4
 8004bd0:	b142      	cbz	r2, 8004be4 <__ascii_mbtowc+0x1a>
 8004bd2:	b14b      	cbz	r3, 8004be8 <__ascii_mbtowc+0x1e>
 8004bd4:	7813      	ldrb	r3, [r2, #0]
 8004bd6:	600b      	str	r3, [r1, #0]
 8004bd8:	7812      	ldrb	r2, [r2, #0]
 8004bda:	1c10      	adds	r0, r2, #0
 8004bdc:	bf18      	it	ne
 8004bde:	2001      	movne	r0, #1
 8004be0:	b002      	add	sp, #8
 8004be2:	4770      	bx	lr
 8004be4:	4610      	mov	r0, r2
 8004be6:	e7fb      	b.n	8004be0 <__ascii_mbtowc+0x16>
 8004be8:	f06f 0001 	mvn.w	r0, #1
 8004bec:	e7f8      	b.n	8004be0 <__ascii_mbtowc+0x16>

08004bee <memmove>:
 8004bee:	4288      	cmp	r0, r1
 8004bf0:	b510      	push	{r4, lr}
 8004bf2:	eb01 0302 	add.w	r3, r1, r2
 8004bf6:	d803      	bhi.n	8004c00 <memmove+0x12>
 8004bf8:	1e42      	subs	r2, r0, #1
 8004bfa:	4299      	cmp	r1, r3
 8004bfc:	d10c      	bne.n	8004c18 <memmove+0x2a>
 8004bfe:	bd10      	pop	{r4, pc}
 8004c00:	4298      	cmp	r0, r3
 8004c02:	d2f9      	bcs.n	8004bf8 <memmove+0xa>
 8004c04:	1881      	adds	r1, r0, r2
 8004c06:	1ad2      	subs	r2, r2, r3
 8004c08:	42d3      	cmn	r3, r2
 8004c0a:	d100      	bne.n	8004c0e <memmove+0x20>
 8004c0c:	bd10      	pop	{r4, pc}
 8004c0e:	f813 4d01 	ldrb.w	r4, [r3, #-1]!
 8004c12:	f801 4d01 	strb.w	r4, [r1, #-1]!
 8004c16:	e7f7      	b.n	8004c08 <memmove+0x1a>
 8004c18:	f811 4b01 	ldrb.w	r4, [r1], #1
 8004c1c:	f802 4f01 	strb.w	r4, [r2, #1]!
 8004c20:	e7eb      	b.n	8004bfa <memmove+0xc>

08004c22 <memset>:
 8004c22:	4603      	mov	r3, r0
 8004c24:	4402      	add	r2, r0
 8004c26:	4293      	cmp	r3, r2
 8004c28:	d100      	bne.n	8004c2c <memset+0xa>
 8004c2a:	4770      	bx	lr
 8004c2c:	f803 1b01 	strb.w	r1, [r3], #1
 8004c30:	e7f9      	b.n	8004c26 <memset+0x4>
	...

08004c34 <_realloc_r>:
 8004c34:	e92d 4ff7 	stmdb	sp!, {r0, r1, r2, r4, r5, r6, r7, r8, r9, sl, fp, lr}
 8004c38:	4682      	mov	sl, r0
 8004c3a:	460c      	mov	r4, r1
 8004c3c:	b929      	cbnz	r1, 8004c4a <_realloc_r+0x16>
 8004c3e:	4611      	mov	r1, r2
 8004c40:	b003      	add	sp, #12
 8004c42:	e8bd 4ff0 	ldmia.w	sp!, {r4, r5, r6, r7, r8, r9, sl, fp, lr}
 8004c46:	f7ff ba03 	b.w	8004050 <_malloc_r>
 8004c4a:	9201      	str	r2, [sp, #4]
 8004c4c:	f7ff fc26 	bl	800449c <__malloc_lock>
 8004c50:	9a01      	ldr	r2, [sp, #4]
 8004c52:	f854 5c04 	ldr.w	r5, [r4, #-4]
 8004c56:	f102 080b 	add.w	r8, r2, #11
 8004c5a:	f1b8 0f16 	cmp.w	r8, #22
 8004c5e:	f1a4 0908 	sub.w	r9, r4, #8
 8004c62:	f025 0603 	bic.w	r6, r5, #3
 8004c66:	d90a      	bls.n	8004c7e <_realloc_r+0x4a>
 8004c68:	f038 0807 	bics.w	r8, r8, #7
 8004c6c:	d509      	bpl.n	8004c82 <_realloc_r+0x4e>
 8004c6e:	230c      	movs	r3, #12
 8004c70:	2700      	movs	r7, #0
 8004c72:	f8ca 3000 	str.w	r3, [sl]
 8004c76:	4638      	mov	r0, r7
 8004c78:	b003      	add	sp, #12
 8004c7a:	e8bd 8ff0 	ldmia.w	sp!, {r4, r5, r6, r7, r8, r9, sl, fp, pc}
 8004c7e:	f04f 0810 	mov.w	r8, #16
 8004c82:	4590      	cmp	r8, r2
 8004c84:	d3f3      	bcc.n	8004c6e <_realloc_r+0x3a>
 8004c86:	45b0      	cmp	r8, r6
 8004c88:	f340 8148 	ble.w	8004f1c <_realloc_r+0x2e8>
 8004c8c:	4ba9      	ldr	r3, [pc, #676]	; (8004f34 <_realloc_r+0x300>)
 8004c8e:	eb09 0106 	add.w	r1, r9, r6
 8004c92:	f8d3 e008 	ldr.w	lr, [r3, #8]
 8004c96:	469b      	mov	fp, r3
 8004c98:	4571      	cmp	r1, lr
 8004c9a:	684b      	ldr	r3, [r1, #4]
 8004c9c:	d005      	beq.n	8004caa <_realloc_r+0x76>
 8004c9e:	f023 0001 	bic.w	r0, r3, #1
 8004ca2:	4408      	add	r0, r1
 8004ca4:	6840      	ldr	r0, [r0, #4]
 8004ca6:	07c7      	lsls	r7, r0, #31
 8004ca8:	d447      	bmi.n	8004d3a <_realloc_r+0x106>
 8004caa:	f023 0303 	bic.w	r3, r3, #3
 8004cae:	4571      	cmp	r1, lr
 8004cb0:	eb06 0703 	add.w	r7, r6, r3
 8004cb4:	d119      	bne.n	8004cea <_realloc_r+0xb6>
 8004cb6:	f108 0010 	add.w	r0, r8, #16
 8004cba:	4287      	cmp	r7, r0
 8004cbc:	db3f      	blt.n	8004d3e <_realloc_r+0x10a>
 8004cbe:	eba7 0708 	sub.w	r7, r7, r8
 8004cc2:	eb09 0308 	add.w	r3, r9, r8
 8004cc6:	f047 0701 	orr.w	r7, r7, #1
 8004cca:	f8cb 3008 	str.w	r3, [fp, #8]
 8004cce:	605f      	str	r7, [r3, #4]
 8004cd0:	f854 3c04 	ldr.w	r3, [r4, #-4]
 8004cd4:	4650      	mov	r0, sl
 8004cd6:	f003 0301 	and.w	r3, r3, #1
 8004cda:	ea43 0308 	orr.w	r3, r3, r8
 8004cde:	f844 3c04 	str.w	r3, [r4, #-4]
 8004ce2:	f7ff fbe1 	bl	80044a8 <__malloc_unlock>
 8004ce6:	4627      	mov	r7, r4
 8004ce8:	e7c5      	b.n	8004c76 <_realloc_r+0x42>
 8004cea:	45b8      	cmp	r8, r7
 8004cec:	dc27      	bgt.n	8004d3e <_realloc_r+0x10a>
 8004cee:	68cb      	ldr	r3, [r1, #12]
 8004cf0:	688a      	ldr	r2, [r1, #8]
 8004cf2:	60d3      	str	r3, [r2, #12]
 8004cf4:	609a      	str	r2, [r3, #8]
 8004cf6:	eba7 0008 	sub.w	r0, r7, r8
 8004cfa:	280f      	cmp	r0, #15
 8004cfc:	f8d9 3004 	ldr.w	r3, [r9, #4]
 8004d00:	eb09 0207 	add.w	r2, r9, r7
 8004d04:	f240 810c 	bls.w	8004f20 <_realloc_r+0x2ec>
 8004d08:	f003 0301 	and.w	r3, r3, #1
 8004d0c:	eb09 0108 	add.w	r1, r9, r8
 8004d10:	ea43 0308 	orr.w	r3, r3, r8
 8004d14:	f040 0001 	orr.w	r0, r0, #1
 8004d18:	f8c9 3004 	str.w	r3, [r9, #4]
 8004d1c:	6048      	str	r0, [r1, #4]
 8004d1e:	6853      	ldr	r3, [r2, #4]
 8004d20:	3108      	adds	r1, #8
 8004d22:	f043 0301 	orr.w	r3, r3, #1
 8004d26:	6053      	str	r3, [r2, #4]
 8004d28:	4650      	mov	r0, sl
 8004d2a:	f7ff f8bf 	bl	8003eac <_free_r>
 8004d2e:	4650      	mov	r0, sl
 8004d30:	f7ff fbba 	bl	80044a8 <__malloc_unlock>
 8004d34:	f109 0708 	add.w	r7, r9, #8
 8004d38:	e79d      	b.n	8004c76 <_realloc_r+0x42>
 8004d3a:	2300      	movs	r3, #0
 8004d3c:	4619      	mov	r1, r3
 8004d3e:	07e8      	lsls	r0, r5, #31
 8004d40:	f100 8085 	bmi.w	8004e4e <_realloc_r+0x21a>
 8004d44:	f854 5c08 	ldr.w	r5, [r4, #-8]
 8004d48:	eba9 0505 	sub.w	r5, r9, r5
 8004d4c:	6868      	ldr	r0, [r5, #4]
 8004d4e:	f020 0003 	bic.w	r0, r0, #3
 8004d52:	4430      	add	r0, r6
 8004d54:	2900      	cmp	r1, #0
 8004d56:	d077      	beq.n	8004e48 <_realloc_r+0x214>
 8004d58:	4571      	cmp	r1, lr
 8004d5a:	d151      	bne.n	8004e00 <_realloc_r+0x1cc>
 8004d5c:	4403      	add	r3, r0
 8004d5e:	f108 0110 	add.w	r1, r8, #16
 8004d62:	428b      	cmp	r3, r1
 8004d64:	db70      	blt.n	8004e48 <_realloc_r+0x214>
 8004d66:	462f      	mov	r7, r5
 8004d68:	68ea      	ldr	r2, [r5, #12]
 8004d6a:	f857 1f08 	ldr.w	r1, [r7, #8]!
 8004d6e:	60ca      	str	r2, [r1, #12]
 8004d70:	6091      	str	r1, [r2, #8]
 8004d72:	1f32      	subs	r2, r6, #4
 8004d74:	2a24      	cmp	r2, #36	; 0x24
 8004d76:	d83c      	bhi.n	8004df2 <_realloc_r+0x1be>
 8004d78:	2a13      	cmp	r2, #19
 8004d7a:	d937      	bls.n	8004dec <_realloc_r+0x1b8>
 8004d7c:	6821      	ldr	r1, [r4, #0]
 8004d7e:	2a1b      	cmp	r2, #27
 8004d80:	60a9      	str	r1, [r5, #8]
 8004d82:	6861      	ldr	r1, [r4, #4]
 8004d84:	60e9      	str	r1, [r5, #12]
 8004d86:	d81c      	bhi.n	8004dc2 <_realloc_r+0x18e>
 8004d88:	f105 0210 	add.w	r2, r5, #16
 8004d8c:	f104 0108 	add.w	r1, r4, #8
 8004d90:	6808      	ldr	r0, [r1, #0]
 8004d92:	6010      	str	r0, [r2, #0]
 8004d94:	6848      	ldr	r0, [r1, #4]
 8004d96:	6050      	str	r0, [r2, #4]
 8004d98:	6889      	ldr	r1, [r1, #8]
 8004d9a:	6091      	str	r1, [r2, #8]
 8004d9c:	eba3 0308 	sub.w	r3, r3, r8
 8004da0:	eb05 0208 	add.w	r2, r5, r8
 8004da4:	f043 0301 	orr.w	r3, r3, #1
 8004da8:	f8cb 2008 	str.w	r2, [fp, #8]
 8004dac:	6053      	str	r3, [r2, #4]
 8004dae:	686b      	ldr	r3, [r5, #4]
 8004db0:	f003 0301 	and.w	r3, r3, #1
 8004db4:	ea43 0308 	orr.w	r3, r3, r8
 8004db8:	606b      	str	r3, [r5, #4]
 8004dba:	4650      	mov	r0, sl
 8004dbc:	f7ff fb74 	bl	80044a8 <__malloc_unlock>
 8004dc0:	e759      	b.n	8004c76 <_realloc_r+0x42>
 8004dc2:	68a1      	ldr	r1, [r4, #8]
 8004dc4:	2a24      	cmp	r2, #36	; 0x24
 8004dc6:	6129      	str	r1, [r5, #16]
 8004dc8:	68e1      	ldr	r1, [r4, #12]
 8004dca:	bf18      	it	ne
 8004dcc:	f105 0218 	addne.w	r2, r5, #24
 8004dd0:	6169      	str	r1, [r5, #20]
 8004dd2:	bf09      	itett	eq
 8004dd4:	6922      	ldreq	r2, [r4, #16]
 8004dd6:	f104 0110 	addne.w	r1, r4, #16
 8004dda:	61aa      	streq	r2, [r5, #24]
 8004ddc:	6960      	ldreq	r0, [r4, #20]
 8004dde:	bf02      	ittt	eq
 8004de0:	f105 0220 	addeq.w	r2, r5, #32
 8004de4:	f104 0118 	addeq.w	r1, r4, #24
 8004de8:	61e8      	streq	r0, [r5, #28]
 8004dea:	e7d1      	b.n	8004d90 <_realloc_r+0x15c>
 8004dec:	463a      	mov	r2, r7
 8004dee:	4621      	mov	r1, r4
 8004df0:	e7ce      	b.n	8004d90 <_realloc_r+0x15c>
 8004df2:	4621      	mov	r1, r4
 8004df4:	4638      	mov	r0, r7
 8004df6:	9301      	str	r3, [sp, #4]
 8004df8:	f7ff fef9 	bl	8004bee <memmove>
 8004dfc:	9b01      	ldr	r3, [sp, #4]
 8004dfe:	e7cd      	b.n	8004d9c <_realloc_r+0x168>
 8004e00:	18c7      	adds	r7, r0, r3
 8004e02:	45b8      	cmp	r8, r7
 8004e04:	dc20      	bgt.n	8004e48 <_realloc_r+0x214>
 8004e06:	68cb      	ldr	r3, [r1, #12]
 8004e08:	688a      	ldr	r2, [r1, #8]
 8004e0a:	60d3      	str	r3, [r2, #12]
 8004e0c:	609a      	str	r2, [r3, #8]
 8004e0e:	4628      	mov	r0, r5
 8004e10:	68eb      	ldr	r3, [r5, #12]
 8004e12:	f850 2f08 	ldr.w	r2, [r0, #8]!
 8004e16:	60d3      	str	r3, [r2, #12]
 8004e18:	609a      	str	r2, [r3, #8]
 8004e1a:	1f32      	subs	r2, r6, #4
 8004e1c:	2a24      	cmp	r2, #36	; 0x24
 8004e1e:	d843      	bhi.n	8004ea8 <_realloc_r+0x274>
 8004e20:	2a13      	cmp	r2, #19
 8004e22:	d93f      	bls.n	8004ea4 <_realloc_r+0x270>
 8004e24:	6823      	ldr	r3, [r4, #0]
 8004e26:	2a1b      	cmp	r2, #27
 8004e28:	60ab      	str	r3, [r5, #8]
 8004e2a:	6863      	ldr	r3, [r4, #4]
 8004e2c:	60eb      	str	r3, [r5, #12]
 8004e2e:	d824      	bhi.n	8004e7a <_realloc_r+0x246>
 8004e30:	f105 0010 	add.w	r0, r5, #16
 8004e34:	f104 0308 	add.w	r3, r4, #8
 8004e38:	681a      	ldr	r2, [r3, #0]
 8004e3a:	6002      	str	r2, [r0, #0]
 8004e3c:	685a      	ldr	r2, [r3, #4]
 8004e3e:	6042      	str	r2, [r0, #4]
 8004e40:	689b      	ldr	r3, [r3, #8]
 8004e42:	6083      	str	r3, [r0, #8]
 8004e44:	46a9      	mov	r9, r5
 8004e46:	e756      	b.n	8004cf6 <_realloc_r+0xc2>
 8004e48:	4580      	cmp	r8, r0
 8004e4a:	4607      	mov	r7, r0
 8004e4c:	dddf      	ble.n	8004e0e <_realloc_r+0x1da>
 8004e4e:	4611      	mov	r1, r2
 8004e50:	4650      	mov	r0, sl
 8004e52:	f7ff f8fd 	bl	8004050 <_malloc_r>
 8004e56:	4607      	mov	r7, r0
 8004e58:	2800      	cmp	r0, #0
 8004e5a:	d0ae      	beq.n	8004dba <_realloc_r+0x186>
 8004e5c:	f854 3c04 	ldr.w	r3, [r4, #-4]
 8004e60:	f1a0 0208 	sub.w	r2, r0, #8
 8004e64:	f023 0301 	bic.w	r3, r3, #1
 8004e68:	444b      	add	r3, r9
 8004e6a:	429a      	cmp	r2, r3
 8004e6c:	d120      	bne.n	8004eb0 <_realloc_r+0x27c>
 8004e6e:	f850 7c04 	ldr.w	r7, [r0, #-4]
 8004e72:	f027 0703 	bic.w	r7, r7, #3
 8004e76:	4437      	add	r7, r6
 8004e78:	e73d      	b.n	8004cf6 <_realloc_r+0xc2>
 8004e7a:	68a3      	ldr	r3, [r4, #8]
 8004e7c:	2a24      	cmp	r2, #36	; 0x24
 8004e7e:	612b      	str	r3, [r5, #16]
 8004e80:	68e3      	ldr	r3, [r4, #12]
 8004e82:	bf18      	it	ne
 8004e84:	f105 0018 	addne.w	r0, r5, #24
 8004e88:	616b      	str	r3, [r5, #20]
 8004e8a:	bf09      	itett	eq
 8004e8c:	6923      	ldreq	r3, [r4, #16]
 8004e8e:	f104 0310 	addne.w	r3, r4, #16
 8004e92:	61ab      	streq	r3, [r5, #24]
 8004e94:	6962      	ldreq	r2, [r4, #20]
 8004e96:	bf02      	ittt	eq
 8004e98:	f105 0020 	addeq.w	r0, r5, #32
 8004e9c:	f104 0318 	addeq.w	r3, r4, #24
 8004ea0:	61ea      	streq	r2, [r5, #28]
 8004ea2:	e7c9      	b.n	8004e38 <_realloc_r+0x204>
 8004ea4:	4623      	mov	r3, r4
 8004ea6:	e7c7      	b.n	8004e38 <_realloc_r+0x204>
 8004ea8:	4621      	mov	r1, r4
 8004eaa:	f7ff fea0 	bl	8004bee <memmove>
 8004eae:	e7c9      	b.n	8004e44 <_realloc_r+0x210>
 8004eb0:	1f32      	subs	r2, r6, #4
 8004eb2:	2a24      	cmp	r2, #36	; 0x24
 8004eb4:	d82e      	bhi.n	8004f14 <_realloc_r+0x2e0>
 8004eb6:	2a13      	cmp	r2, #19
 8004eb8:	d929      	bls.n	8004f0e <_realloc_r+0x2da>
 8004eba:	6823      	ldr	r3, [r4, #0]
 8004ebc:	2a1b      	cmp	r2, #27
 8004ebe:	6003      	str	r3, [r0, #0]
 8004ec0:	6863      	ldr	r3, [r4, #4]
 8004ec2:	6043      	str	r3, [r0, #4]
 8004ec4:	d80e      	bhi.n	8004ee4 <_realloc_r+0x2b0>
 8004ec6:	f100 0308 	add.w	r3, r0, #8
 8004eca:	f104 0208 	add.w	r2, r4, #8
 8004ece:	6811      	ldr	r1, [r2, #0]
 8004ed0:	6019      	str	r1, [r3, #0]
 8004ed2:	6851      	ldr	r1, [r2, #4]
 8004ed4:	6059      	str	r1, [r3, #4]
 8004ed6:	6892      	ldr	r2, [r2, #8]
 8004ed8:	609a      	str	r2, [r3, #8]
 8004eda:	4621      	mov	r1, r4
 8004edc:	4650      	mov	r0, sl
 8004ede:	f7fe ffe5 	bl	8003eac <_free_r>
 8004ee2:	e76a      	b.n	8004dba <_realloc_r+0x186>
 8004ee4:	68a3      	ldr	r3, [r4, #8]
 8004ee6:	2a24      	cmp	r2, #36	; 0x24
 8004ee8:	6083      	str	r3, [r0, #8]
 8004eea:	68e3      	ldr	r3, [r4, #12]
 8004eec:	bf18      	it	ne
 8004eee:	f104 0210 	addne.w	r2, r4, #16
 8004ef2:	60c3      	str	r3, [r0, #12]
 8004ef4:	bf09      	itett	eq
 8004ef6:	6923      	ldreq	r3, [r4, #16]
 8004ef8:	f100 0310 	addne.w	r3, r0, #16
 8004efc:	6103      	streq	r3, [r0, #16]
 8004efe:	6961      	ldreq	r1, [r4, #20]
 8004f00:	bf02      	ittt	eq
 8004f02:	f100 0318 	addeq.w	r3, r0, #24
 8004f06:	f104 0218 	addeq.w	r2, r4, #24
 8004f0a:	6141      	streq	r1, [r0, #20]
 8004f0c:	e7df      	b.n	8004ece <_realloc_r+0x29a>
 8004f0e:	4603      	mov	r3, r0
 8004f10:	4622      	mov	r2, r4
 8004f12:	e7dc      	b.n	8004ece <_realloc_r+0x29a>
 8004f14:	4621      	mov	r1, r4
 8004f16:	f7ff fe6a 	bl	8004bee <memmove>
 8004f1a:	e7de      	b.n	8004eda <_realloc_r+0x2a6>
 8004f1c:	4637      	mov	r7, r6
 8004f1e:	e6ea      	b.n	8004cf6 <_realloc_r+0xc2>
 8004f20:	f003 0301 	and.w	r3, r3, #1
 8004f24:	431f      	orrs	r7, r3
 8004f26:	f8c9 7004 	str.w	r7, [r9, #4]
 8004f2a:	6853      	ldr	r3, [r2, #4]
 8004f2c:	f043 0301 	orr.w	r3, r3, #1
 8004f30:	6053      	str	r3, [r2, #4]
 8004f32:	e6fc      	b.n	8004d2e <_realloc_r+0xfa>
 8004f34:	200000f8 	.word	0x200000f8

08004f38 <__ascii_wctomb>:
 8004f38:	b149      	cbz	r1, 8004f4e <__ascii_wctomb+0x16>
 8004f3a:	2aff      	cmp	r2, #255	; 0xff
 8004f3c:	bf8b      	itete	hi
 8004f3e:	238a      	movhi	r3, #138	; 0x8a
 8004f40:	700a      	strbls	r2, [r1, #0]
 8004f42:	6003      	strhi	r3, [r0, #0]
 8004f44:	2001      	movls	r0, #1
 8004f46:	bf88      	it	hi
 8004f48:	f04f 30ff 	movhi.w	r0, #4294967295
 8004f4c:	4770      	bx	lr
 8004f4e:	4608      	mov	r0, r1
 8004f50:	4770      	bx	lr
 8004f52:	0000      	movs	r0, r0
 8004f54:	0000      	movs	r0, r0
	...

08004f58 <exp>:
 8004f58:	e92d 43f0 	stmdb	sp!, {r4, r5, r6, r7, r8, r9, lr}
 8004f5c:	b08b      	sub	sp, #44	; 0x2c
 8004f5e:	4604      	mov	r4, r0
 8004f60:	460d      	mov	r5, r1
 8004f62:	f000 f871 	bl	8005048 <__ieee754_exp>
 8004f66:	f8df 80dc 	ldr.w	r8, [pc, #220]	; 8005044 <exp+0xec>
 8004f6a:	4606      	mov	r6, r0
 8004f6c:	f998 3000 	ldrsb.w	r3, [r8]
 8004f70:	460f      	mov	r7, r1
 8004f72:	3301      	adds	r3, #1
 8004f74:	d02c      	beq.n	8004fd0 <exp+0x78>
 8004f76:	4620      	mov	r0, r4
 8004f78:	4629      	mov	r1, r5
 8004f7a:	f000 f9d3 	bl	8005324 <finite>
 8004f7e:	b338      	cbz	r0, 8004fd0 <exp+0x78>
 8004f80:	a329      	add	r3, pc, #164	; (adr r3, 8005028 <exp+0xd0>)
 8004f82:	e9d3 2300 	ldrd	r2, r3, [r3]
 8004f86:	4620      	mov	r0, r4
 8004f88:	4629      	mov	r1, r5
 8004f8a:	f7fb fd49 	bl	8000a20 <__aeabi_dcmpgt>
 8004f8e:	4681      	mov	r9, r0
 8004f90:	2800      	cmp	r0, #0
 8004f92:	d02d      	beq.n	8004ff0 <exp+0x98>
 8004f94:	2303      	movs	r3, #3
 8004f96:	9300      	str	r3, [sp, #0]
 8004f98:	4b27      	ldr	r3, [pc, #156]	; (8005038 <exp+0xe0>)
 8004f9a:	e9cd 4504 	strd	r4, r5, [sp, #16]
 8004f9e:	9301      	str	r3, [sp, #4]
 8004fa0:	2300      	movs	r3, #0
 8004fa2:	9308      	str	r3, [sp, #32]
 8004fa4:	f998 3000 	ldrsb.w	r3, [r8]
 8004fa8:	e9cd 4502 	strd	r4, r5, [sp, #8]
 8004fac:	b9ab      	cbnz	r3, 8004fda <exp+0x82>
 8004fae:	f04f 4260 	mov.w	r2, #3758096384	; 0xe0000000
 8004fb2:	4b22      	ldr	r3, [pc, #136]	; (800503c <exp+0xe4>)
 8004fb4:	e9cd 2306 	strd	r2, r3, [sp, #24]
 8004fb8:	4668      	mov	r0, sp
 8004fba:	f000 f9b9 	bl	8005330 <matherr>
 8004fbe:	b190      	cbz	r0, 8004fe6 <exp+0x8e>
 8004fc0:	9b08      	ldr	r3, [sp, #32]
 8004fc2:	b11b      	cbz	r3, 8004fcc <exp+0x74>
 8004fc4:	f000 f9b6 	bl	8005334 <__errno>
 8004fc8:	9b08      	ldr	r3, [sp, #32]
 8004fca:	6003      	str	r3, [r0, #0]
 8004fcc:	e9dd 6706 	ldrd	r6, r7, [sp, #24]
 8004fd0:	4630      	mov	r0, r6
 8004fd2:	4639      	mov	r1, r7
 8004fd4:	b00b      	add	sp, #44	; 0x2c
 8004fd6:	e8bd 83f0 	ldmia.w	sp!, {r4, r5, r6, r7, r8, r9, pc}
 8004fda:	2000      	movs	r0, #0
 8004fdc:	4918      	ldr	r1, [pc, #96]	; (8005040 <exp+0xe8>)
 8004fde:	e9cd 0106 	strd	r0, r1, [sp, #24]
 8004fe2:	2b02      	cmp	r3, #2
 8004fe4:	d1e8      	bne.n	8004fb8 <exp+0x60>
 8004fe6:	f000 f9a5 	bl	8005334 <__errno>
 8004fea:	2322      	movs	r3, #34	; 0x22
 8004fec:	6003      	str	r3, [r0, #0]
 8004fee:	e7e7      	b.n	8004fc0 <exp+0x68>
 8004ff0:	a30f      	add	r3, pc, #60	; (adr r3, 8005030 <exp+0xd8>)
 8004ff2:	e9d3 2300 	ldrd	r2, r3, [r3]
 8004ff6:	4620      	mov	r0, r4
 8004ff8:	4629      	mov	r1, r5
 8004ffa:	f7fb fcf3 	bl	80009e4 <__aeabi_dcmplt>
 8004ffe:	2800      	cmp	r0, #0
 8005000:	d0e6      	beq.n	8004fd0 <exp+0x78>
 8005002:	2304      	movs	r3, #4
 8005004:	9300      	str	r3, [sp, #0]
 8005006:	4b0c      	ldr	r3, [pc, #48]	; (8005038 <exp+0xe0>)
 8005008:	2200      	movs	r2, #0
 800500a:	9301      	str	r3, [sp, #4]
 800500c:	2300      	movs	r3, #0
 800500e:	f8cd 9020 	str.w	r9, [sp, #32]
 8005012:	e9cd 2306 	strd	r2, r3, [sp, #24]
 8005016:	e9cd 4504 	strd	r4, r5, [sp, #16]
 800501a:	e9cd 4502 	strd	r4, r5, [sp, #8]
 800501e:	f998 3000 	ldrsb.w	r3, [r8]
 8005022:	e7de      	b.n	8004fe2 <exp+0x8a>
 8005024:	f3af 8000 	nop.w
 8005028:	fefa39ef 	.word	0xfefa39ef
 800502c:	40862e42 	.word	0x40862e42
 8005030:	d52d3051 	.word	0xd52d3051
 8005034:	c0874910 	.word	0xc0874910
 8005038:	08005717 	.word	0x08005717
 800503c:	47efffff 	.word	0x47efffff
 8005040:	7ff00000 	.word	0x7ff00000
 8005044:	20000674 	.word	0x20000674

08005048 <__ieee754_exp>:
 8005048:	e92d 4ff7 	stmdb	sp!, {r0, r1, r2, r4, r5, r6, r7, r8, r9, sl, fp, lr}
 800504c:	4aac      	ldr	r2, [pc, #688]	; (8005300 <__ieee754_exp+0x2b8>)
 800504e:	f021 4600 	bic.w	r6, r1, #2147483648	; 0x80000000
 8005052:	4296      	cmp	r6, r2
 8005054:	4605      	mov	r5, r0
 8005056:	460c      	mov	r4, r1
 8005058:	ea4f 77d1 	mov.w	r7, r1, lsr #31
 800505c:	f240 80ab 	bls.w	80051b6 <__ieee754_exp+0x16e>
 8005060:	4aa8      	ldr	r2, [pc, #672]	; (8005304 <__ieee754_exp+0x2bc>)
 8005062:	4296      	cmp	r6, r2
 8005064:	d912      	bls.n	800508c <__ieee754_exp+0x44>
 8005066:	f3c1 0313 	ubfx	r3, r1, #0, #20
 800506a:	4303      	orrs	r3, r0
 800506c:	d006      	beq.n	800507c <__ieee754_exp+0x34>
 800506e:	4602      	mov	r2, r0
 8005070:	460b      	mov	r3, r1
 8005072:	f7fb f893 	bl	800019c <__adddf3>
 8005076:	4605      	mov	r5, r0
 8005078:	460c      	mov	r4, r1
 800507a:	e002      	b.n	8005082 <__ieee754_exp+0x3a>
 800507c:	b10f      	cbz	r7, 8005082 <__ieee754_exp+0x3a>
 800507e:	2500      	movs	r5, #0
 8005080:	462c      	mov	r4, r5
 8005082:	4628      	mov	r0, r5
 8005084:	4621      	mov	r1, r4
 8005086:	b003      	add	sp, #12
 8005088:	e8bd 8ff0 	ldmia.w	sp!, {r4, r5, r6, r7, r8, r9, sl, fp, pc}
 800508c:	a386      	add	r3, pc, #536	; (adr r3, 80052a8 <__ieee754_exp+0x260>)
 800508e:	e9d3 2300 	ldrd	r2, r3, [r3]
 8005092:	f7fb fcc5 	bl	8000a20 <__aeabi_dcmpgt>
 8005096:	b138      	cbz	r0, 80050a8 <__ieee754_exp+0x60>
 8005098:	a385      	add	r3, pc, #532	; (adr r3, 80052b0 <__ieee754_exp+0x268>)
 800509a:	e9d3 2300 	ldrd	r2, r3, [r3]
 800509e:	4610      	mov	r0, r2
 80050a0:	4619      	mov	r1, r3
 80050a2:	f7fb fa2d 	bl	8000500 <__aeabi_dmul>
 80050a6:	e7e6      	b.n	8005076 <__ieee754_exp+0x2e>
 80050a8:	a383      	add	r3, pc, #524	; (adr r3, 80052b8 <__ieee754_exp+0x270>)
 80050aa:	e9d3 2300 	ldrd	r2, r3, [r3]
 80050ae:	4628      	mov	r0, r5
 80050b0:	4621      	mov	r1, r4
 80050b2:	f7fb fc97 	bl	80009e4 <__aeabi_dcmplt>
 80050b6:	2800      	cmp	r0, #0
 80050b8:	d1e1      	bne.n	800507e <__ieee754_exp+0x36>
 80050ba:	4b93      	ldr	r3, [pc, #588]	; (8005308 <__ieee754_exp+0x2c0>)
 80050bc:	ea4f 08c7 	mov.w	r8, r7, lsl #3
 80050c0:	429e      	cmp	r6, r3
 80050c2:	f200 808e 	bhi.w	80051e2 <__ieee754_exp+0x19a>
 80050c6:	4b91      	ldr	r3, [pc, #580]	; (800530c <__ieee754_exp+0x2c4>)
 80050c8:	4621      	mov	r1, r4
 80050ca:	4443      	add	r3, r8
 80050cc:	e9d3 2300 	ldrd	r2, r3, [r3]
 80050d0:	4628      	mov	r0, r5
 80050d2:	f7fb f861 	bl	8000198 <__aeabi_dsub>
 80050d6:	4682      	mov	sl, r0
 80050d8:	468b      	mov	fp, r1
 80050da:	4e8d      	ldr	r6, [pc, #564]	; (8005310 <__ieee754_exp+0x2c8>)
 80050dc:	4446      	add	r6, r8
 80050de:	e896 0018 	ldmia.w	r6, {r3, r4}
 80050e2:	e88d 0018 	stmia.w	sp, {r3, r4}
 80050e6:	f1c7 0801 	rsb	r8, r7, #1
 80050ea:	eba8 0807 	sub.w	r8, r8, r7
 80050ee:	e9dd 2300 	ldrd	r2, r3, [sp]
 80050f2:	4650      	mov	r0, sl
 80050f4:	4659      	mov	r1, fp
 80050f6:	f7fb f84f 	bl	8000198 <__aeabi_dsub>
 80050fa:	4605      	mov	r5, r0
 80050fc:	460c      	mov	r4, r1
 80050fe:	462a      	mov	r2, r5
 8005100:	4623      	mov	r3, r4
 8005102:	4628      	mov	r0, r5
 8005104:	4621      	mov	r1, r4
 8005106:	f7fb f9fb 	bl	8000500 <__aeabi_dmul>
 800510a:	a36d      	add	r3, pc, #436	; (adr r3, 80052c0 <__ieee754_exp+0x278>)
 800510c:	e9d3 2300 	ldrd	r2, r3, [r3]
 8005110:	4606      	mov	r6, r0
 8005112:	460f      	mov	r7, r1
 8005114:	f7fb f9f4 	bl	8000500 <__aeabi_dmul>
 8005118:	a36b      	add	r3, pc, #428	; (adr r3, 80052c8 <__ieee754_exp+0x280>)
 800511a:	e9d3 2300 	ldrd	r2, r3, [r3]
 800511e:	f7fb f83b 	bl	8000198 <__aeabi_dsub>
 8005122:	4632      	mov	r2, r6
 8005124:	463b      	mov	r3, r7
 8005126:	f7fb f9eb 	bl	8000500 <__aeabi_dmul>
 800512a:	a369      	add	r3, pc, #420	; (adr r3, 80052d0 <__ieee754_exp+0x288>)
 800512c:	e9d3 2300 	ldrd	r2, r3, [r3]
 8005130:	f7fb f834 	bl	800019c <__adddf3>
 8005134:	4632      	mov	r2, r6
 8005136:	463b      	mov	r3, r7
 8005138:	f7fb f9e2 	bl	8000500 <__aeabi_dmul>
 800513c:	a366      	add	r3, pc, #408	; (adr r3, 80052d8 <__ieee754_exp+0x290>)
 800513e:	e9d3 2300 	ldrd	r2, r3, [r3]
 8005142:	f7fb f829 	bl	8000198 <__aeabi_dsub>
 8005146:	4632      	mov	r2, r6
 8005148:	463b      	mov	r3, r7
 800514a:	f7fb f9d9 	bl	8000500 <__aeabi_dmul>
 800514e:	a364      	add	r3, pc, #400	; (adr r3, 80052e0 <__ieee754_exp+0x298>)
 8005150:	e9d3 2300 	ldrd	r2, r3, [r3]
 8005154:	f7fb f822 	bl	800019c <__adddf3>
 8005158:	4632      	mov	r2, r6
 800515a:	463b      	mov	r3, r7
 800515c:	f7fb f9d0 	bl	8000500 <__aeabi_dmul>
 8005160:	4602      	mov	r2, r0
 8005162:	460b      	mov	r3, r1
 8005164:	4628      	mov	r0, r5
 8005166:	4621      	mov	r1, r4
 8005168:	f7fb f816 	bl	8000198 <__aeabi_dsub>
 800516c:	4606      	mov	r6, r0
 800516e:	460f      	mov	r7, r1
 8005170:	4602      	mov	r2, r0
 8005172:	460b      	mov	r3, r1
 8005174:	4628      	mov	r0, r5
 8005176:	4621      	mov	r1, r4
 8005178:	f1b8 0f00 	cmp.w	r8, #0
 800517c:	d161      	bne.n	8005242 <__ieee754_exp+0x1fa>
 800517e:	f7fb f9bf 	bl	8000500 <__aeabi_dmul>
 8005182:	2200      	movs	r2, #0
 8005184:	4680      	mov	r8, r0
 8005186:	4689      	mov	r9, r1
 8005188:	f04f 4380 	mov.w	r3, #1073741824	; 0x40000000
 800518c:	4630      	mov	r0, r6
 800518e:	4639      	mov	r1, r7
 8005190:	f7fb f802 	bl	8000198 <__aeabi_dsub>
 8005194:	4602      	mov	r2, r0
 8005196:	460b      	mov	r3, r1
 8005198:	4640      	mov	r0, r8
 800519a:	4649      	mov	r1, r9
 800519c:	f7fb fada 	bl	8000754 <__aeabi_ddiv>
 80051a0:	462a      	mov	r2, r5
 80051a2:	4623      	mov	r3, r4
 80051a4:	f7fa fff8 	bl	8000198 <__aeabi_dsub>
 80051a8:	4602      	mov	r2, r0
 80051aa:	460b      	mov	r3, r1
 80051ac:	2000      	movs	r0, #0
 80051ae:	4959      	ldr	r1, [pc, #356]	; (8005314 <__ieee754_exp+0x2cc>)
 80051b0:	f7fa fff2 	bl	8000198 <__aeabi_dsub>
 80051b4:	e75f      	b.n	8005076 <__ieee754_exp+0x2e>
 80051b6:	4b58      	ldr	r3, [pc, #352]	; (8005318 <__ieee754_exp+0x2d0>)
 80051b8:	429e      	cmp	r6, r3
 80051ba:	f63f af7e 	bhi.w	80050ba <__ieee754_exp+0x72>
 80051be:	4b57      	ldr	r3, [pc, #348]	; (800531c <__ieee754_exp+0x2d4>)
 80051c0:	429e      	cmp	r6, r3
 80051c2:	d839      	bhi.n	8005238 <__ieee754_exp+0x1f0>
 80051c4:	a33a      	add	r3, pc, #232	; (adr r3, 80052b0 <__ieee754_exp+0x268>)
 80051c6:	e9d3 2300 	ldrd	r2, r3, [r3]
 80051ca:	f7fa ffe7 	bl	800019c <__adddf3>
 80051ce:	2200      	movs	r2, #0
 80051d0:	4b50      	ldr	r3, [pc, #320]	; (8005314 <__ieee754_exp+0x2cc>)
 80051d2:	f7fb fc25 	bl	8000a20 <__aeabi_dcmpgt>
 80051d6:	b390      	cbz	r0, 800523e <__ieee754_exp+0x1f6>
 80051d8:	2200      	movs	r2, #0
 80051da:	4b4e      	ldr	r3, [pc, #312]	; (8005314 <__ieee754_exp+0x2cc>)
 80051dc:	4628      	mov	r0, r5
 80051de:	4621      	mov	r1, r4
 80051e0:	e747      	b.n	8005072 <__ieee754_exp+0x2a>
 80051e2:	4e4f      	ldr	r6, [pc, #316]	; (8005320 <__ieee754_exp+0x2d8>)
 80051e4:	a340      	add	r3, pc, #256	; (adr r3, 80052e8 <__ieee754_exp+0x2a0>)
 80051e6:	e9d3 2300 	ldrd	r2, r3, [r3]
 80051ea:	4446      	add	r6, r8
 80051ec:	4628      	mov	r0, r5
 80051ee:	4621      	mov	r1, r4
 80051f0:	f7fb f986 	bl	8000500 <__aeabi_dmul>
 80051f4:	e9d6 2300 	ldrd	r2, r3, [r6]
 80051f8:	f7fa ffd0 	bl	800019c <__adddf3>
 80051fc:	f7fb fc30 	bl	8000a60 <__aeabi_d2iz>
 8005200:	4680      	mov	r8, r0
 8005202:	f7fb f917 	bl	8000434 <__aeabi_i2d>
 8005206:	a33a      	add	r3, pc, #232	; (adr r3, 80052f0 <__ieee754_exp+0x2a8>)
 8005208:	e9d3 2300 	ldrd	r2, r3, [r3]
 800520c:	4606      	mov	r6, r0
 800520e:	460f      	mov	r7, r1
 8005210:	f7fb f976 	bl	8000500 <__aeabi_dmul>
 8005214:	4602      	mov	r2, r0
 8005216:	460b      	mov	r3, r1
 8005218:	4628      	mov	r0, r5
 800521a:	4621      	mov	r1, r4
 800521c:	f7fa ffbc 	bl	8000198 <__aeabi_dsub>
 8005220:	a335      	add	r3, pc, #212	; (adr r3, 80052f8 <__ieee754_exp+0x2b0>)
 8005222:	e9d3 2300 	ldrd	r2, r3, [r3]
 8005226:	4682      	mov	sl, r0
 8005228:	468b      	mov	fp, r1
 800522a:	4630      	mov	r0, r6
 800522c:	4639      	mov	r1, r7
 800522e:	f7fb f967 	bl	8000500 <__aeabi_dmul>
 8005232:	e9cd 0100 	strd	r0, r1, [sp]
 8005236:	e75a      	b.n	80050ee <__ieee754_exp+0xa6>
 8005238:	f04f 0800 	mov.w	r8, #0
 800523c:	e75f      	b.n	80050fe <__ieee754_exp+0xb6>
 800523e:	4680      	mov	r8, r0
 8005240:	e75d      	b.n	80050fe <__ieee754_exp+0xb6>
 8005242:	f7fb f95d 	bl	8000500 <__aeabi_dmul>
 8005246:	4632      	mov	r2, r6
 8005248:	4604      	mov	r4, r0
 800524a:	460d      	mov	r5, r1
 800524c:	463b      	mov	r3, r7
 800524e:	2000      	movs	r0, #0
 8005250:	f04f 4180 	mov.w	r1, #1073741824	; 0x40000000
 8005254:	f7fa ffa0 	bl	8000198 <__aeabi_dsub>
 8005258:	4602      	mov	r2, r0
 800525a:	460b      	mov	r3, r1
 800525c:	4620      	mov	r0, r4
 800525e:	4629      	mov	r1, r5
 8005260:	f7fb fa78 	bl	8000754 <__aeabi_ddiv>
 8005264:	4602      	mov	r2, r0
 8005266:	460b      	mov	r3, r1
 8005268:	e9dd 0100 	ldrd	r0, r1, [sp]
 800526c:	f7fa ff94 	bl	8000198 <__aeabi_dsub>
 8005270:	4652      	mov	r2, sl
 8005272:	465b      	mov	r3, fp
 8005274:	f7fa ff90 	bl	8000198 <__aeabi_dsub>
 8005278:	460b      	mov	r3, r1
 800527a:	4602      	mov	r2, r0
 800527c:	4925      	ldr	r1, [pc, #148]	; (8005314 <__ieee754_exp+0x2cc>)
 800527e:	2000      	movs	r0, #0
 8005280:	f7fa ff8a 	bl	8000198 <__aeabi_dsub>
 8005284:	f46f 737f 	mvn.w	r3, #1020	; 0x3fc
 8005288:	4598      	cmp	r8, r3
 800528a:	db02      	blt.n	8005292 <__ieee754_exp+0x24a>
 800528c:	eb01 5108 	add.w	r1, r1, r8, lsl #20
 8005290:	e6f1      	b.n	8005076 <__ieee754_exp+0x2e>
 8005292:	f508 787a 	add.w	r8, r8, #1000	; 0x3e8
 8005296:	eb01 5108 	add.w	r1, r1, r8, lsl #20
 800529a:	2200      	movs	r2, #0
 800529c:	f04f 73b8 	mov.w	r3, #24117248	; 0x1700000
 80052a0:	e6ff      	b.n	80050a2 <__ieee754_exp+0x5a>
 80052a2:	bf00      	nop
 80052a4:	f3af 8000 	nop.w
 80052a8:	fefa39ef 	.word	0xfefa39ef
 80052ac:	40862e42 	.word	0x40862e42
 80052b0:	8800759c 	.word	0x8800759c
 80052b4:	7e37e43c 	.word	0x7e37e43c
 80052b8:	d52d3051 	.word	0xd52d3051
 80052bc:	c0874910 	.word	0xc0874910
 80052c0:	72bea4d0 	.word	0x72bea4d0
 80052c4:	3e663769 	.word	0x3e663769
 80052c8:	c5d26bf1 	.word	0xc5d26bf1
 80052cc:	3ebbbd41 	.word	0x3ebbbd41
 80052d0:	af25de2c 	.word	0xaf25de2c
 80052d4:	3f11566a 	.word	0x3f11566a
 80052d8:	16bebd93 	.word	0x16bebd93
 80052dc:	3f66c16c 	.word	0x3f66c16c
 80052e0:	5555553e 	.word	0x5555553e
 80052e4:	3fc55555 	.word	0x3fc55555
 80052e8:	652b82fe 	.word	0x652b82fe
 80052ec:	3ff71547 	.word	0x3ff71547
 80052f0:	fee00000 	.word	0xfee00000
 80052f4:	3fe62e42 	.word	0x3fe62e42
 80052f8:	35793c76 	.word	0x35793c76
 80052fc:	3dea39ef 	.word	0x3dea39ef
 8005300:	40862e41 	.word	0x40862e41
 8005304:	7fefffff 	.word	0x7fefffff
 8005308:	3ff0a2b1 	.word	0x3ff0a2b1
 800530c:	08005730 	.word	0x08005730
 8005310:	08005740 	.word	0x08005740
 8005314:	3ff00000 	.word	0x3ff00000
 8005318:	3fd62e42 	.word	0x3fd62e42
 800531c:	3e2fffff 	.word	0x3e2fffff
 8005320:	08005720 	.word	0x08005720

08005324 <finite>:
 8005324:	f041 4100 	orr.w	r1, r1, #2147483648	; 0x80000000
 8005328:	f501 1080 	add.w	r0, r1, #1048576	; 0x100000
 800532c:	0fc0      	lsrs	r0, r0, #31
 800532e:	4770      	bx	lr

08005330 <matherr>:
 8005330:	2000      	movs	r0, #0
 8005332:	4770      	bx	lr

08005334 <__errno>:
 8005334:	4b01      	ldr	r3, [pc, #4]	; (800533c <__errno+0x8>)
 8005336:	6818      	ldr	r0, [r3, #0]
 8005338:	4770      	bx	lr
 800533a:	bf00      	nop
 800533c:	20000004 	.word	0x20000004

08005340 <_init>:
 8005340:	b5f8      	push	{r3, r4, r5, r6, r7, lr}
 8005342:	bf00      	nop
 8005344:	bcf8      	pop	{r3, r4, r5, r6, r7}
 8005346:	bc08      	pop	{r3}
 8005348:	469e      	mov	lr, r3
 800534a:	4770      	bx	lr

0800534c <_fini>:
 800534c:	b5f8      	push	{r3, r4, r5, r6, r7, lr}
 800534e:	bf00      	nop
 8005350:	bcf8      	pop	{r3, r4, r5, r6, r7}
 8005352:	bc08      	pop	{r3}
 8005354:	469e      	mov	lr, r3
 8005356:	4770      	bx	lr
